
testbench/_c_code/quicksort.mips.elf:     file format elf32-tradbigmips


Disassembly of section .text:

10000000 <entry-0x4>:
10000000:	3c1d2400 	lui	sp,0x2400

10000004 <entry>:
10000004:	27bdf030 	addiu	sp,sp,-4048
10000008:	afbf0fcc 	sw	ra,4044(sp)
1000000c:	afbe0fc8 	sw	s8,4040(sp)
10000010:	03a0f025 	move	s8,sp
10000014:	afc00020 	sw	zero,32(s8)
10000018:	240203e8 	li	v0,1000
1000001c:	afc20024 	sw	v0,36(s8)
10000020:	afc00018 	sw	zero,24(s8)
10000024:	10000012 	b	10000070 <entry+0x6c>
10000028:	00000000 	nop
1000002c:	3c021000 	lui	v0,0x1000
10000030:	8fc30018 	lw	v1,24(s8)
10000034:	00000000 	nop
10000038:	00031880 	sll	v1,v1,0x2
1000003c:	24420410 	addiu	v0,v0,1040
10000040:	00621021 	addu	v0,v1,v0
10000044:	8c430000 	lw	v1,0(v0)
10000048:	8fc20018 	lw	v0,24(s8)
1000004c:	00000000 	nop
10000050:	00021080 	sll	v0,v0,0x2
10000054:	27c40018 	addiu	a0,s8,24
10000058:	00821021 	addu	v0,a0,v0
1000005c:	ac430010 	sw	v1,16(v0)
10000060:	8fc20018 	lw	v0,24(s8)
10000064:	00000000 	nop
10000068:	24420001 	addiu	v0,v0,1
1000006c:	afc20018 	sw	v0,24(s8)
10000070:	8fc30018 	lw	v1,24(s8)
10000074:	8fc20024 	lw	v0,36(s8)
10000078:	00000000 	nop
1000007c:	0062102a 	slt	v0,v1,v0
10000080:	1440ffea 	bnez	v0,1000002c <entry+0x28>
10000084:	00000000 	nop
10000088:	8fc20024 	lw	v0,36(s8)
1000008c:	00000000 	nop
10000090:	2443ffff 	addiu	v1,v0,-1
10000094:	27c20028 	addiu	v0,s8,40
10000098:	00603025 	move	a2,v1
1000009c:	00002825 	move	a1,zero
100000a0:	00402025 	move	a0,v0
100000a4:	0c0000cc 	jal	10000330 <quickSort>
100000a8:	00000000 	nop
100000ac:	afc0001c 	sw	zero,28(s8)
100000b0:	10000019 	b	10000118 <entry+0x114>
100000b4:	00000000 	nop
100000b8:	8fc2001c 	lw	v0,28(s8)
100000bc:	00000000 	nop
100000c0:	00021080 	sll	v0,v0,0x2
100000c4:	27c30018 	addiu	v1,s8,24
100000c8:	00621021 	addu	v0,v1,v0
100000cc:	8c430010 	lw	v1,16(v0)
100000d0:	8fc2001c 	lw	v0,28(s8)
100000d4:	00000000 	nop
100000d8:	24420001 	addiu	v0,v0,1
100000dc:	00021080 	sll	v0,v0,0x2
100000e0:	27c40018 	addiu	a0,s8,24
100000e4:	00821021 	addu	v0,a0,v0
100000e8:	8c420010 	lw	v0,16(v0)
100000ec:	00000000 	nop
100000f0:	0043102a 	slt	v0,v0,v1
100000f4:	10400004 	beqz	v0,10000108 <entry+0x104>
100000f8:	00000000 	nop
100000fc:	2402ffff 	li	v0,-1
10000100:	1000000e 	b	1000013c <entry+0x138>
10000104:	00000000 	nop
10000108:	8fc2001c 	lw	v0,28(s8)
1000010c:	00000000 	nop
10000110:	24420001 	addiu	v0,v0,1
10000114:	afc2001c 	sw	v0,28(s8)
10000118:	8fc20024 	lw	v0,36(s8)
1000011c:	00000000 	nop
10000120:	2443ffff 	addiu	v1,v0,-1
10000124:	8fc2001c 	lw	v0,28(s8)
10000128:	00000000 	nop
1000012c:	0043102a 	slt	v0,v0,v1
10000130:	1440ffe1 	bnez	v0,100000b8 <entry+0xb4>
10000134:	00000000 	nop
10000138:	24020001 	li	v0,1
1000013c:	03c0e825 	move	sp,s8
10000140:	8fbf0fcc 	lw	ra,4044(sp)
10000144:	8fbe0fc8 	lw	s8,4040(sp)
10000148:	27bd0fd0 	addiu	sp,sp,4048
1000014c:	03e00008 	jr	ra
10000150:	00000000 	nop

10000154 <swap>:
10000154:	27bdffe8 	addiu	sp,sp,-24
10000158:	afbe0014 	sw	s8,20(sp)
1000015c:	03a0f025 	move	s8,sp
10000160:	afc40018 	sw	a0,24(s8)
10000164:	afc5001c 	sw	a1,28(s8)
10000168:	8fc20018 	lw	v0,24(s8)
1000016c:	00000000 	nop
10000170:	8c420000 	lw	v0,0(v0)
10000174:	00000000 	nop
10000178:	afc20008 	sw	v0,8(s8)
1000017c:	8fc2001c 	lw	v0,28(s8)
10000180:	00000000 	nop
10000184:	8c430000 	lw	v1,0(v0)
10000188:	8fc20018 	lw	v0,24(s8)
1000018c:	00000000 	nop
10000190:	ac430000 	sw	v1,0(v0)
10000194:	8fc2001c 	lw	v0,28(s8)
10000198:	8fc30008 	lw	v1,8(s8)
1000019c:	00000000 	nop
100001a0:	ac430000 	sw	v1,0(v0)
100001a4:	00000000 	nop
100001a8:	03c0e825 	move	sp,s8
100001ac:	8fbe0014 	lw	s8,20(sp)
100001b0:	27bd0018 	addiu	sp,sp,24
100001b4:	03e00008 	jr	ra
100001b8:	00000000 	nop

100001bc <partition>:
100001bc:	27bdffd0 	addiu	sp,sp,-48
100001c0:	afbf002c 	sw	ra,44(sp)
100001c4:	afbe0028 	sw	s8,40(sp)
100001c8:	03a0f025 	move	s8,sp
100001cc:	afc40030 	sw	a0,48(s8)
100001d0:	afc50034 	sw	a1,52(s8)
100001d4:	afc60038 	sw	a2,56(s8)
100001d8:	8fc20038 	lw	v0,56(s8)
100001dc:	00000000 	nop
100001e0:	00021080 	sll	v0,v0,0x2
100001e4:	8fc30030 	lw	v1,48(s8)
100001e8:	00000000 	nop
100001ec:	00621021 	addu	v0,v1,v0
100001f0:	8c420000 	lw	v0,0(v0)
100001f4:	00000000 	nop
100001f8:	afc20020 	sw	v0,32(s8)
100001fc:	8fc20034 	lw	v0,52(s8)
10000200:	00000000 	nop
10000204:	2442ffff 	addiu	v0,v0,-1
10000208:	afc20018 	sw	v0,24(s8)
1000020c:	8fc20034 	lw	v0,52(s8)
10000210:	00000000 	nop
10000214:	afc2001c 	sw	v0,28(s8)
10000218:	10000024 	b	100002ac <partition+0xf0>
1000021c:	00000000 	nop
10000220:	8fc2001c 	lw	v0,28(s8)
10000224:	00000000 	nop
10000228:	00021080 	sll	v0,v0,0x2
1000022c:	8fc30030 	lw	v1,48(s8)
10000230:	00000000 	nop
10000234:	00621021 	addu	v0,v1,v0
10000238:	8c430000 	lw	v1,0(v0)
1000023c:	8fc20020 	lw	v0,32(s8)
10000240:	00000000 	nop
10000244:	0043102a 	slt	v0,v0,v1
10000248:	14400014 	bnez	v0,1000029c <partition+0xe0>
1000024c:	00000000 	nop
10000250:	8fc20018 	lw	v0,24(s8)
10000254:	00000000 	nop
10000258:	24420001 	addiu	v0,v0,1
1000025c:	afc20018 	sw	v0,24(s8)
10000260:	8fc20018 	lw	v0,24(s8)
10000264:	00000000 	nop
10000268:	00021080 	sll	v0,v0,0x2
1000026c:	8fc30030 	lw	v1,48(s8)
10000270:	00000000 	nop
10000274:	00622021 	addu	a0,v1,v0
10000278:	8fc2001c 	lw	v0,28(s8)
1000027c:	00000000 	nop
10000280:	00021080 	sll	v0,v0,0x2
10000284:	8fc30030 	lw	v1,48(s8)
10000288:	00000000 	nop
1000028c:	00621021 	addu	v0,v1,v0
10000290:	00402825 	move	a1,v0
10000294:	0c000055 	jal	10000154 <swap>
10000298:	00000000 	nop
1000029c:	8fc2001c 	lw	v0,28(s8)
100002a0:	00000000 	nop
100002a4:	24420001 	addiu	v0,v0,1
100002a8:	afc2001c 	sw	v0,28(s8)
100002ac:	8fc20038 	lw	v0,56(s8)
100002b0:	00000000 	nop
100002b4:	2443ffff 	addiu	v1,v0,-1
100002b8:	8fc2001c 	lw	v0,28(s8)
100002bc:	00000000 	nop
100002c0:	0062102a 	slt	v0,v1,v0
100002c4:	1040ffd6 	beqz	v0,10000220 <partition+0x64>
100002c8:	00000000 	nop
100002cc:	8fc20018 	lw	v0,24(s8)
100002d0:	00000000 	nop
100002d4:	24420001 	addiu	v0,v0,1
100002d8:	00021080 	sll	v0,v0,0x2
100002dc:	8fc30030 	lw	v1,48(s8)
100002e0:	00000000 	nop
100002e4:	00622021 	addu	a0,v1,v0
100002e8:	8fc20038 	lw	v0,56(s8)
100002ec:	00000000 	nop
100002f0:	00021080 	sll	v0,v0,0x2
100002f4:	8fc30030 	lw	v1,48(s8)
100002f8:	00000000 	nop
100002fc:	00621021 	addu	v0,v1,v0
10000300:	00402825 	move	a1,v0
10000304:	0c000055 	jal	10000154 <swap>
10000308:	00000000 	nop
1000030c:	8fc20018 	lw	v0,24(s8)
10000310:	00000000 	nop
10000314:	24420001 	addiu	v0,v0,1
10000318:	03c0e825 	move	sp,s8
1000031c:	8fbf002c 	lw	ra,44(sp)
10000320:	8fbe0028 	lw	s8,40(sp)
10000324:	27bd0030 	addiu	sp,sp,48
10000328:	03e00008 	jr	ra
1000032c:	00000000 	nop

10000330 <quickSort>:
10000330:	27bdffd8 	addiu	sp,sp,-40
10000334:	afbf0024 	sw	ra,36(sp)
10000338:	afbe0020 	sw	s8,32(sp)
1000033c:	03a0f025 	move	s8,sp
10000340:	afc40028 	sw	a0,40(s8)
10000344:	afc5002c 	sw	a1,44(s8)
10000348:	afc60030 	sw	a2,48(s8)
1000034c:	8fc3002c 	lw	v1,44(s8)
10000350:	8fc20030 	lw	v0,48(s8)
10000354:	00000000 	nop
10000358:	0062102a 	slt	v0,v1,v0
1000035c:	10400017 	beqz	v0,100003bc <quickSort+0x8c>
10000360:	00000000 	nop
10000364:	8fc60030 	lw	a2,48(s8)
10000368:	8fc5002c 	lw	a1,44(s8)
1000036c:	8fc40028 	lw	a0,40(s8)
10000370:	0c00006f 	jal	100001bc <partition>
10000374:	00000000 	nop
10000378:	afc20018 	sw	v0,24(s8)
1000037c:	8fc20018 	lw	v0,24(s8)
10000380:	00000000 	nop
10000384:	2442ffff 	addiu	v0,v0,-1
10000388:	00403025 	move	a2,v0
1000038c:	8fc5002c 	lw	a1,44(s8)
10000390:	8fc40028 	lw	a0,40(s8)
10000394:	0c0000cc 	jal	10000330 <quickSort>
10000398:	00000000 	nop
1000039c:	8fc20018 	lw	v0,24(s8)
100003a0:	00000000 	nop
100003a4:	24420001 	addiu	v0,v0,1
100003a8:	8fc60030 	lw	a2,48(s8)
100003ac:	00402825 	move	a1,v0
100003b0:	8fc40028 	lw	a0,40(s8)
100003b4:	0c0000cc 	jal	10000330 <quickSort>
100003b8:	00000000 	nop
100003bc:	00000000 	nop
100003c0:	03c0e825 	move	sp,s8
100003c4:	8fbf0024 	lw	ra,36(sp)
100003c8:	8fbe0020 	lw	s8,32(sp)
100003cc:	27bd0028 	addiu	sp,sp,40
100003d0:	03e00008 	jr	ra
100003d4:	00000000 	nop
	...

Disassembly of section .reginfo:

100003e0 <.reginfo>:
100003e0:	e000007c 	swc0	c0_index,124(zero)
	...

Disassembly of section .MIPS.abiflags:

100003f8 <.MIPS.abiflags>:
100003f8:	00000100 	sll	zero,zero,0x4
100003fc:	01010001 	0x1010001
	...

Disassembly of section .rodata:

10000410 <arr>:
10000410:	759c5d8d 	jalx	16717634 <arr+0x6717224>
10000414:	0f643632 	jal	1d90d8c8 <arr+0xd90d4b8>
10000418:	53f4da45 	0x53f4da45
1000041c:	3bd39991 	xori	s3,s8,0x9991
10000420:	3d84da5b 	0x3d84da5b
10000424:	3a45b702 	xori	a1,s2,0xb702
10000428:	62d5a0e5 	0x62d5a0e5
1000042c:	270ef3e6 	addiu	t6,t8,-3098
10000430:	42b072f7 	c0	0xb072f7
10000434:	1f4d9068 	0x1f4d9068
10000438:	319618b8 	andi	s6,t4,0x18b8
1000043c:	73d209c2 	0x73d209c2
10000440:	377c7dce 	ori	gp,k1,0x7dce
10000444:	229194dd 	addi	s1,s4,-27427
10000448:	6326f847 	0x6326f847
1000044c:	194330a1 	0x194330a1
10000450:	7e617df0 	0x7e617df0
10000454:	37c5abf7 	ori	a1,s8,0xabf7
10000458:	08ce5469 	j	133951a4 <arr+0x3394d94>
1000045c:	45332568 	0x45332568
10000460:	524d9532 	0x524d9532
10000464:	38990e7a 	xori	t9,a0,0xe7a
10000468:	7d813e98 	0x7d813e98
1000046c:	6cdaa17f 	0x6cdaa17f
10000470:	33c62b96 	andi	a2,s8,0x2b96
10000474:	71a46ebd 	0x71a46ebd
10000478:	7b4e6cd7 	0x7b4e6cd7
1000047c:	274d4bba 	addiu	t5,k0,19386
10000480:	63a67af2 	0x63a67af2
10000484:	625ab245 	0x625ab245
10000488:	48796cc8 	0x48796cc8
1000048c:	43951316 	c0	0x1951316
10000490:	57118438 	0x57118438
10000494:	6f545752 	0x6f545752
10000498:	33f26fc6 	andi	s2,ra,0x6fc6
1000049c:	140edffc 	bne	zero,t6,fff8490 <entry-0x7b74>
100004a0:	427d7be2 	c0	0x7d7be2
100004a4:	2845447e 	slti	a1,v0,17534
100004a8:	172500a9 	bne	t9,a1,10000750 <arr+0x340>
100004ac:	308f5df9 	andi	t7,a0,0x5df9
100004b0:	4d14e2ca 	0x4d14e2ca
100004b4:	541b16d5 	0x541b16d5
100004b8:	2a91e2ee 	slti	s1,s4,-7442
100004bc:	4f29bd73 	c3	0x129bd73
100004c0:	2ca25d6e 	sltiu	v0,a1,23918
100004c4:	17ad92c5 	bne	sp,t5,ffe4fdc <entry-0x1b028>
100004c8:	24378e25 	addiu	s7,at,-29147
100004cc:	71a66806 	0x71a66806
100004d0:	15613d70 	bne	t3,at,1000fa94 <arr+0xf684>
100004d4:	1c6da537 	0x1c6da537
100004d8:	3c863edd 	0x3c863edd
100004dc:	0475c80d 	0x475c80d
100004e0:	37089296 	ori	t0,t8,0x9296
100004e4:	4c5ec9f5 	0x4c5ec9f5
100004e8:	6e815cd1 	0x6e815cd1
100004ec:	0a6f84ca 	j	19be1328 <arr+0x9be0f18>
100004f0:	33cfff4d 	andi	t7,s8,0xff4d
100004f4:	34613789 	ori	at,v1,0x3789
100004f8:	55335a09 	0x55335a09
100004fc:	4e614c03 	c3	0x614c03
10000500:	6c877ee8 	0x6c877ee8
10000504:	57d0098d 	0x57d0098d
10000508:	206e347f 	addi	t6,v1,13439
1000050c:	772bef64 	jalx	1cafbd90 <arr+0xcafb980>
10000510:	4fa0f28f 	c3	0x1a0f28f
10000514:	68d3fc97 	0x68d3fc97
10000518:	470916cc 	c1	0x10916cc
1000051c:	12b13ed4 	beq	s5,s1,10010070 <arr+0xfc60>
10000520:	6de8b939 	0x6de8b939
10000524:	3aefd8e6 	xori	t7,s7,0xd8e6
10000528:	1fa0e4f0 	bgtz	sp,fff98ec <entry-0x6718>
1000052c:	605b3142 	0x605b3142
10000530:	41ea82d2 	0x41ea82d2
10000534:	00281030 	0x281030
10000538:	287fd6aa 	slti	ra,v1,-10582
1000053c:	392b7377 	xori	t3,t1,0x7377
10000540:	42e3a547 	c0	0xe3a547
10000544:	4ded3a78 	0x4ded3a78
10000548:	26d94f3f 	addiu	t9,s6,20287
1000054c:	1c6234ff 	0x1c6234ff
10000550:	13ab0e27 	beq	sp,t3,10003df0 <arr+0x39e0>
10000554:	7805c91c 	0x7805c91c
10000558:	01371edf 	0x1371edf
1000055c:	7b66f1c9 	0x7b66f1c9
10000560:	1db4a13e 	0x1db4a13e
10000564:	0445a897 	0x445a897
10000568:	45d4da34 	0x45d4da34
1000056c:	0a85ccf8 	j	1a1733e0 <arr+0xa172fd0>
10000570:	3df26cd7 	0x3df26cd7
10000574:	4e3eb0a3 	c3	0x3eb0a3
10000578:	0444115c 	0x444115c
1000057c:	62fdb0cc 	0x62fdb0cc
10000580:	7cc3e541 	0x7cc3e541
10000584:	3ba4982c 	xori	a0,sp,0x982c
10000588:	1edbd544 	0x1edbd544
1000058c:	0dbb0a3f 	jal	16ec28fc <arr+0x6ec24ec>
10000590:	51089f5d 	0x51089f5d
10000594:	2189311f 	addi	t1,t4,12575
10000598:	371355f0 	ori	s3,t8,0x55f0
1000059c:	50a8751a 	0x50a8751a
100005a0:	2104dad6 	addi	a0,t0,-9514
100005a4:	4185e05f 	0x4185e05f
100005a8:	17080516 	bne	t8,t0,10001a04 <arr+0x15f4>
100005ac:	1b8341cb 	0x1b8341cb
100005b0:	52cdf6ed 	0x52cdf6ed
100005b4:	52db8072 	0x52db8072
100005b8:	47bbe0e4 	c1	0x1bbe0e4
100005bc:	4a611439 	c2	0x611439
100005c0:	1550703e 	bne	t2,s0,1001c6bc <arr+0x1c2ac>
100005c4:	5963c989 	0x5963c989
100005c8:	41617ae6 	0x41617ae6
100005cc:	24d0fec9 	addiu	s0,a2,-311
100005d0:	41afccc6 	0x41afccc6
100005d4:	508b8ec2 	0x508b8ec2
100005d8:	5b2e5122 	0x5b2e5122
100005dc:	2a5afda6 	slti	k0,s2,-602
100005e0:	255aed18 	addiu	k0,t2,-4840
100005e4:	4e272362 	c3	0x272362
100005e8:	359f05ed 	ori	ra,t4,0x5ed
100005ec:	17725413 	bne	k1,s2,1001563c <arr+0x1522c>
100005f0:	0f88215a 	jal	1e208568 <arr+0xe208158>
100005f4:	11c2c9f9 	beq	t6,v0,fff2ddc <entry-0xd228>
100005f8:	08e0674a 	j	13819d28 <arr+0x3819918>
100005fc:	73d2e990 	0x73d2e990
10000600:	0cbd115c 	jal	12f44570 <arr+0x2f44160>
10000604:	52a2d620 	0x52a2d620
10000608:	7bb964e9 	0x7bb964e9
1000060c:	38671175 	xori	a3,v1,0x1175
10000610:	3ff69499 	0x3ff69499
10000614:	62e76701 	0x62e76701
10000618:	303ff1a7 	andi	ra,at,0xf1a7
1000061c:	734bab4c 	0x734bab4c
10000620:	4fc36548 	c3	0x1c36548
10000624:	62c03523 	0x62c03523
10000628:	6f1fdddc 	0x6f1fdddc
1000062c:	56280077 	0x56280077
10000630:	5c7b5c50 	0x5c7b5c50
10000634:	5b67a038 	0x5b67a038
10000638:	572b52cb 	0x572b52cb
1000063c:	2cf7186a 	sltiu	s7,a3,6250
10000640:	4a4b9095 	c2	0x4b9095
10000644:	6a3352dc 	0x6a3352dc
10000648:	453bb3fa 	0x453bb3fa
1000064c:	1e03e8e1 	0x1e03e8e1
10000650:	5d7a8c0b 	0x5d7a8c0b
10000654:	2f09cd34 	sltiu	t1,t8,-13004
10000658:	57cb3c4e 	0x57cb3c4e
1000065c:	4477a421 	0x4477a421
10000660:	64e0a01d 	0x64e0a01d
10000664:	708e06d8 	0x708e06d8
10000668:	0de1da21 	jal	17876884 <arr+0x7876474>
1000066c:	3d96d77f 	0x3d96d77f
10000670:	3fad20a7 	0x3fad20a7
10000674:	160c1a72 	bne	s0,t4,10007040 <arr+0x6c30>
10000678:	2aa2604f 	slti	v0,s5,24655
1000067c:	2f2d40d7 	sltiu	t5,t9,16599
10000680:	2c0ade12 	sltiu	t2,zero,-8686
10000684:	6a845114 	0x6a845114
10000688:	158e99de 	bne	t4,t6,ffe6e04 <entry-0x19200>
1000068c:	1d08e34e 	0x1d08e34e
10000690:	7195b5bc 	0x7195b5bc
10000694:	0aada573 	j	1ab695cc <arr+0xab691bc>
10000698:	7695111a 	jalx	1a544468 <arr+0xa544058>
1000069c:	32f7225d 	andi	s7,s7,0x225d
100006a0:	2f91fd73 	sltiu	s1,gp,-653
100006a4:	40a053db 	0x40a053db
100006a8:	57025ea0 	0x57025ea0
100006ac:	0465884a 	0x465884a
100006b0:	5d3ed441 	0x5d3ed441
100006b4:	77b7dd94 	jalx	1edf7650 <arr+0xedf7240>
100006b8:	7907f2ee 	0x7907f2ee
100006bc:	76794b13 	jalx	19e52c4c <arr+0x9e5283c>
100006c0:	5cbd68c8 	0x5cbd68c8
100006c4:	1b1f64e3 	0x1b1f64e3
100006c8:	11ac4d64 	beq	t5,t4,10013c5c <arr+0x1384c>
100006cc:	0744f8d3 	0x744f8d3
100006d0:	47cad067 	c1	0x1cad067
100006d4:	4caca767 	0x4caca767
100006d8:	7982765c 	0x7982765c
100006dc:	581d360f 	0x581d360f
100006e0:	4164a8d5 	0x4164a8d5
100006e4:	20497c65 	addi	t1,v0,31845
100006e8:	0a1a0a6c 	j	186829b0 <arr+0x86825a0>
100006ec:	38110a86 	xori	s1,zero,0xa86
100006f0:	67631bd0 	0x67631bd0
100006f4:	6c50dad3 	0x6c50dad3
100006f8:	1d193d62 	0x1d193d62
100006fc:	1cbafbbc 	0x1cbafbbc
10000700:	63926ebb 	0x63926ebb
10000704:	25717b1c 	addiu	s1,t3,31516
10000708:	1f82ab0e 	0x1f82ab0e
1000070c:	00b611ed 	0xb611ed
10000710:	72b6c4c2 	0x72b6c4c2
10000714:	17cf6863 	bne	s8,t7,1001a8a4 <arr+0x1a494>
10000718:	1f767988 	0x1f767988
1000071c:	625355ab 	0x625355ab
10000720:	765080db 	jalx	1942036c <arr+0x941ff5c>
10000724:	4a588e77 	c2	0x588e77
10000728:	42d0debf 	c0	0xd0debf
1000072c:	347103f1 	ori	s1,v1,0x3f1
10000730:	51ef6f67 	0x51ef6f67
10000734:	261aa1a9 	addiu	k0,s0,-24151
10000738:	382abbe1 	xori	t2,at,0xbbe1
1000073c:	0d11eecb 	jal	1447bb2c <arr+0x447b71c>
10000740:	41eb6a60 	0x41eb6a60
10000744:	62dfb649 	0x62dfb649
10000748:	31975302 	andi	s7,t4,0x5302
1000074c:	66959342 	0x66959342
10000750:	00f19e22 	0xf19e22
10000754:	566cb02e 	0x566cb02e
10000758:	4454af37 	0x4454af37
1000075c:	235a9cf9 	addi	k0,k0,-25351
10000760:	11b50f2b 	beq	t5,s5,10004410 <arr+0x4000>
10000764:	6b6b433d 	0x6b6b433d
10000768:	02eb3818 	0x2eb3818
1000076c:	38770385 	xori	s7,v1,0x385
10000770:	31813400 	andi	at,t4,0x3400
10000774:	7090340e 	0x7090340e
10000778:	3e8a9ab5 	0x3e8a9ab5
1000077c:	7f9ebf8e 	0x7f9ebf8e
10000780:	1e846bb8 	0x1e846bb8
10000784:	56d99490 	0x56d99490
10000788:	1c9f48a0 	0x1c9f48a0
1000078c:	6d641673 	0x6d641673
10000790:	2cf49d46 	sltiu	s4,a3,-25274
10000794:	46d3a977 	c1	0xd3a977
10000798:	7b934cca 	0x7b934cca
1000079c:	772dfd54 	jalx	1cb7f550 <arr+0xcb7f140>
100007a0:	10370c3d 	beq	at,s7,10003898 <arr+0x3488>
100007a4:	3d29d10d 	0x3d29d10d
100007a8:	066f5c1a 	0x66f5c1a
100007ac:	304ea36b 	andi	t6,v0,0xa36b
100007b0:	696e5c94 	0x696e5c94
100007b4:	215c3358 	addi	gp,t2,13144
100007b8:	2366a206 	addi	a2,k1,-24058
100007bc:	762e9753 	jalx	18ba5d4c <arr+0x8ba593c>
100007c0:	45c0ecfa 	0x45c0ecfa
100007c4:	0608c33b 	0x608c33b
100007c8:	70ee91f6 	0x70ee91f6
100007cc:	19b01b6a 	0x19b01b6a
100007d0:	3515ffb9 	ori	s5,t0,0xffb9
100007d4:	0738c975 	0x738c975
100007d8:	3e45b81a 	0x3e45b81a
100007dc:	58b0efb1 	0x58b0efb1
100007e0:	1b639b50 	0x1b639b50
100007e4:	668dd1a6 	0x668dd1a6
100007e8:	25a685ad 	addiu	a2,t5,-31315
100007ec:	044eddb2 	0x44eddb2
100007f0:	31bcdb7c 	andi	gp,t5,0xdb7c
100007f4:	63afeb71 	0x63afeb71
100007f8:	22d94c73 	addi	t9,s6,19571
100007fc:	33d7f7d9 	andi	s7,s8,0xf7d9
10000800:	6412a3af 	0x6412a3af
10000804:	33051696 	andi	a1,t8,0x1696
10000808:	7742e14c 	jalx	1d0b8530 <arr+0xd0b8120>
1000080c:	3a3d80e0 	xori	sp,s1,0x80e0
10000810:	6d21d0df 	0x6d21d0df
10000814:	3fb19474 	0x3fb19474
10000818:	46eac6fd 	c1	0xeac6fd
1000081c:	47c36223 	c1	0x1c36223
10000820:	0aac8f6e 	j	1ab23db8 <arr+0xab239a8>
10000824:	535fcf16 	0x535fcf16
10000828:	21e3a921 	addi	v1,t7,-22239
1000082c:	12ae03a7 	beq	s5,t6,100016cc <arr+0x12bc>
10000830:	3ef48fb8 	0x3ef48fb8
10000834:	24580eb9 	addiu	t8,v0,3769
10000838:	51e80574 	0x51e80574
1000083c:	1cd6db2a 	0x1cd6db2a
10000840:	58d94b84 	0x58d94b84
10000844:	239ec92f 	addi	s8,gp,-14033
10000848:	0b84816a 	j	1e1205a8 <arr+0xe120198>
1000084c:	5398b664 	0x5398b664
10000850:	33943529 	andi	s4,gp,0x3529
10000854:	55075a3f 	0x55075a3f
10000858:	36d99894 	ori	t9,s6,0x9894
1000085c:	64879d7a 	0x64879d7a
10000860:	6778cd37 	0x6778cd37
10000864:	6d3864b1 	0x6d3864b1
10000868:	0c54f49b 	jal	1153d26c <arr+0x153ce5c>
1000086c:	635ae088 	0x635ae088
10000870:	14155058 	bne	zero,s5,100149d4 <arr+0x145c4>
10000874:	74a13f3e 	jalx	1284fcf8 <arr+0x284f8e8>
10000878:	006150f1 	0x6150f1
1000087c:	2a3bf4b2 	slti	k1,s1,-2894
10000880:	4165cecf 	0x4165cecf
10000884:	5ff66991 	0x5ff66991
10000888:	45b52666 	0x45b52666
1000088c:	2c49b1aa 	sltiu	t1,v0,-20054
10000890:	52a75dba 	0x52a75dba
10000894:	61bd6f56 	0x61bd6f56
10000898:	655920a8 	0x655920a8
1000089c:	56987955 	0x56987955
100008a0:	6e54bcad 	0x6e54bcad
100008a4:	7e64916a 	0x7e64916a
100008a8:	396622b7 	xori	a2,t3,0x22b7
100008ac:	24e3f554 	addiu	v1,a3,-2732
100008b0:	4a687ae6 	c2	0x687ae6
100008b4:	4bf76575 	c2	0x1f76575
100008b8:	68f1acf5 	0x68f1acf5
100008bc:	0c17ebcc 	jal	105faf30 <arr+0x5fab20>
100008c0:	132993fe 	beq	t9,t1,ffe58bc <entry-0x1a748>
100008c4:	692de557 	0x692de557
100008c8:	54d54db5 	0x54d54db5
100008cc:	7aa90376 	0x7aa90376
100008d0:	63e05830 	0x63e05830
100008d4:	0c716ae4 	jal	11c5ab90 <arr+0x1c5a780>
100008d8:	208a0c53 	addi	t2,a0,3155
100008dc:	09bcc334 	j	16f30cd0 <arr+0x6f308c0>
100008e0:	172e1ed9 	bne	t9,t6,10008448 <arr+0x8038>
100008e4:	6445baea 	0x6445baea
100008e8:	585c760d 	0x585c760d
100008ec:	795836cb 	0x795836cb
100008f0:	1788e7a3 	bne	gp,t0,fffa780 <entry-0x5884>
100008f4:	42632fd5 	c0	0x632fd5
100008f8:	3acf10b7 	xori	t7,s6,0x10b7
100008fc:	6ab74339 	0x6ab74339
10000900:	17da82ea 	bne	s8,k0,ffe14ac <entry-0x1eb58>
10000904:	76aa560b 	jalx	1aa9582c <arr+0xaa9541c>
10000908:	4997003f 	0x4997003f
1000090c:	4c5e8f92 	0x4c5e8f92
10000910:	0943a693 	j	150e9a4c <arr+0x50e963c>
10000914:	6273db66 	0x6273db66
10000918:	1f9a81c4 	0x1f9a81c4
1000091c:	2f6f7952 	sltiu	t7,k1,31058
10000920:	3174c6eb 	andi	s4,t3,0xc6eb
10000924:	1d9642ed 	0x1d9642ed
10000928:	03200eff 	0x3200eff
1000092c:	73b5ccda 	0x73b5ccda
10000930:	3febc3da 	0x3febc3da
10000934:	0f18a26f 	jal	1c6289bc <arr+0xc6285ac>
10000938:	4398bc5f 	c0	0x198bc5f
1000093c:	45b9d831 	0x45b9d831
10000940:	276a3278 	addiu	t2,k1,12920
10000944:	5b6ed2bf 	0x5b6ed2bf
10000948:	4a624f5b 	c2	0x624f5b
1000094c:	0458b772 	0x458b772
10000950:	683d260c 	0x683d260c
10000954:	6e4ab5eb 	0x6e4ab5eb
10000958:	041d6a22 	0x41d6a22
1000095c:	07e141d1 	bgez	ra,100110a4 <arr+0x10c94>
10000960:	36dd8282 	ori	sp,s6,0x8282
10000964:	07659a00 	0x7659a00
10000968:	5b2d7204 	0x5b2d7204
1000096c:	77ae63a2 	jalx	1eb98e88 <arr+0xeb98a78>
10000970:	09ce339b 	j	1738ce6c <arr+0x738ca5c>
10000974:	4cdd91b8 	0x4cdd91b8
10000978:	78cf66c7 	0x78cf66c7
1000097c:	787ba96a 	0x787ba96a
10000980:	451f8f55 	0x451f8f55
10000984:	7a54b3d7 	0x7a54b3d7
10000988:	059502b3 	0x59502b3
1000098c:	5f332ce1 	0x5f332ce1
10000990:	710424fb 	0x710424fb
10000994:	21a16997 	addi	at,t5,27031
10000998:	0275f487 	0x275f487
1000099c:	1779671f 	bne	k1,t9,1001a61c <arr+0x1a20c>
100009a0:	011a66f4 	0x11a66f4
100009a4:	79f5a546 	0x79f5a546
100009a8:	72c42cad 	0x72c42cad
100009ac:	08fd67b1 	j	13f59ec4 <arr+0x3f59ab4>
100009b0:	536e060d 	0x536e060d
100009b4:	03b2d571 	0x3b2d571
100009b8:	1fcb33d1 	0x1fcb33d1
100009bc:	14119526 	bne	zero,s1,ffe5e58 <entry-0x1a1ac>
100009c0:	5bf03a40 	0x5bf03a40
100009c4:	7aadf6ee 	0x7aadf6ee
100009c8:	77bcdcfc 	jalx	1ef373f0 <arr+0xef36fe0>
100009cc:	75baa379 	jalx	16ea8de4 <arr+0x6ea89d4>
100009d0:	73ba02dc 	0x73ba02dc
100009d4:	3c32d688 	0x3c32d688
100009d8:	4dc78c5d 	0x4dc78c5d
100009dc:	6556f6da 	0x6556f6da
100009e0:	0fb36fcf 	jal	1ecdbf3c <arr+0xecdbb2c>
100009e4:	738c0f4d 	0x738c0f4d
100009e8:	5c2f2ed3 	0x5c2f2ed3
100009ec:	51c97a41 	0x51c97a41
100009f0:	374c67f0 	ori	t4,k0,0x67f0
100009f4:	02cc1bb8 	0x2cc1bb8
100009f8:	5446e497 	0x5446e497
100009fc:	5db17cfd 	0x5db17cfd
10000a00:	3bd1730d 	xori	s1,s8,0x730d
10000a04:	4833e7ba 	0x4833e7ba
10000a08:	1358ecaf 	beq	k0,t8,fffbcc8 <entry-0x433c>
10000a0c:	21bc94f3 	addi	gp,t5,-27405
10000a10:	1f5014cd 	0x1f5014cd
10000a14:	03a7b62e 	0x3a7b62e
10000a18:	1269a6e0 	beq	s3,t1,ffea59c <entry-0x15a68>
10000a1c:	10d06da5 	beq	a2,s0,1001c0b4 <arr+0x1bca4>
10000a20:	1cd9ee97 	0x1cd9ee97
10000a24:	10bd6cef 	beq	a1,sp,1001bde4 <arr+0x1b9d4>
10000a28:	6b2bf3ba 	0x6b2bf3ba
10000a2c:	52efd504 	0x52efd504
10000a30:	0a21f4ad 	j	1887d2b4 <arr+0x887cea4>
10000a34:	1dd4a22e 	0x1dd4a22e
10000a38:	3958ad1d 	xori	t8,t2,0xad1d
10000a3c:	783f177c 	0x783f177c
10000a40:	4d7ccb93 	0x4d7ccb93
10000a44:	2031ed9e 	addi	s1,at,-4706
10000a48:	0a0ac943 	j	182b250c <arr+0x82b20fc>
10000a4c:	4ecb040e 	c3	0xcb040e
10000a50:	72e5e56c 	0x72e5e56c
10000a54:	2c386cf9 	sltiu	t8,at,27897
10000a58:	47043a63 	c1	0x1043a63
10000a5c:	5b216119 	0x5b216119
10000a60:	2206d0cb 	addi	a2,s0,-12085
10000a64:	5fbfa3d0 	0x5fbfa3d0
10000a68:	627f0977 	0x627f0977
10000a6c:	6e0245e3 	0x6e0245e3
10000a70:	74600ce1 	jalx	11803384 <arr+0x1802f74>
10000a74:	157ec28c 	bne	t3,s8,fff14a8 <entry-0xeb5c>
10000a78:	13b5d0ef 	beq	sp,s5,fff4e38 <entry-0xb1cc>
10000a7c:	6589b8c4 	0x6589b8c4
10000a80:	4912e5f7 	0x4912e5f7
10000a84:	63037566 	0x63037566
10000a88:	1de89a13 	0x1de89a13
10000a8c:	05faaf5f 	0x5faaf5f
10000a90:	2f9c4df7 	sltiu	gp,gp,19959
10000a94:	5995c0b9 	0x5995c0b9
10000a98:	35aa2c28 	ori	t2,t5,0x2c28
10000a9c:	1012d2f2 	beq	zero,s2,fff5668 <entry-0xa99c>
10000aa0:	0f71cf50 	jal	1dc73d40 <arr+0xdc73930>
10000aa4:	7049cdf1 	0x7049cdf1
10000aa8:	5f780c27 	0x5f780c27
10000aac:	61558d92 	0x61558d92
10000ab0:	4a10c7da 	c2	0x10c7da
10000ab4:	766554b1 	jalx	199552c4 <arr+0x9954eb4>
10000ab8:	61da889e 	0x61da889e
10000abc:	1d74dd42 	0x1d74dd42
10000ac0:	50819bc7 	0x50819bc7
10000ac4:	132e20d8 	beq	t9,t6,10008e28 <arr+0x8a18>
10000ac8:	709157d2 	0x709157d2
10000acc:	48e4f581 	0x48e4f581
10000ad0:	40bc5ad6 	0x40bc5ad6
10000ad4:	38075e53 	xori	a3,zero,0x5e53
10000ad8:	02a88d46 	0x2a88d46
10000adc:	0ee416e1 	jal	1b905b84 <arr+0xb905774>
10000ae0:	61bfe00f 	0x61bfe00f
10000ae4:	42f030b7 	c0	0xf030b7
10000ae8:	60ef1228 	0x60ef1228
10000aec:	71fb2e30 	0x71fb2e30
10000af0:	683bb30f 	0x683bb30f
10000af4:	0e42ade9 	jal	190ab7a4 <arr+0x90ab394>
10000af8:	23038495 	addi	v1,t8,-31595
10000afc:	1919a4d1 	0x1919a4d1
10000b00:	6826ff16 	0x6826ff16
10000b04:	7400f37a 	jalx	1003cde8 <arr+0x3c9d8>
10000b08:	6f119506 	0x6f119506
10000b0c:	66faa7cb 	0x66faa7cb
10000b10:	03a18115 	0x3a18115
10000b14:	2e484389 	sltiu	t0,s2,17289
10000b18:	5dca18ff 	0x5dca18ff
10000b1c:	45d55383 	0x45d55383
10000b20:	68bd4f35 	0x68bd4f35
10000b24:	1e02d77d 	0x1e02d77d
10000b28:	60e14163 	0x60e14163
10000b2c:	09ee8234 	j	17ba08d0 <arr+0x7ba04c0>
10000b30:	3462c844 	ori	v0,v1,0xc844
10000b34:	44cb0da6 	0x44cb0da6
10000b38:	7d92958d 	0x7d92958d
10000b3c:	5f95dea5 	0x5f95dea5
10000b40:	48d1b6b4 	0x48d1b6b4
10000b44:	069d36cc 	0x69d36cc
10000b48:	1719930f 	bne	t8,t9,ffe5788 <entry-0x1a87c>
10000b4c:	7aa21ea7 	0x7aa21ea7
10000b50:	5a645335 	0x5a645335
10000b54:	4308560b 	c0	0x108560b
10000b58:	04f3a303 	0x4f3a303
10000b5c:	43179e5c 	c0	0x1179e5c
10000b60:	3f374363 	0x3f374363
10000b64:	310455ae 	andi	a0,t0,0x55ae
10000b68:	433789f2 	c0	0x13789f2
10000b6c:	39bf8399 	xori	ra,t5,0x8399
10000b70:	70707fe4 	0x70707fe4
10000b74:	4bc60812 	c2	0x1c60812
10000b78:	3b9194f4 	xori	s1,gp,0x94f4
10000b7c:	66e40252 	0x66e40252
10000b80:	305472a8 	andi	s4,v0,0x72a8
10000b84:	5ffc45e5 	0x5ffc45e5
10000b88:	1aec0b2b 	0x1aec0b2b
10000b8c:	521d4b00 	0x521d4b00
10000b90:	023de136 	0x23de136
10000b94:	25078ee6 	addiu	a3,t0,-28954
10000b98:	6cbb06c7 	0x6cbb06c7
10000b9c:	19dd9451 	0x19dd9451
10000ba0:	611b0b29 	0x611b0b29
10000ba4:	451e1f45 	0x451e1f45
10000ba8:	5927d4c6 	0x5927d4c6
10000bac:	6869310e 	0x6869310e
10000bb0:	03eb3b74 	0x3eb3b74
10000bb4:	338744fa 	andi	a3,gp,0x44fa
10000bb8:	79ffd909 	0x79ffd909
10000bbc:	1f0d27ad 	0x1f0d27ad
10000bc0:	34de1ab7 	ori	s8,a2,0x1ab7
10000bc4:	53731243 	0x53731243
10000bc8:	594d8578 	0x594d8578
10000bcc:	32340749 	andi	s4,s1,0x749
10000bd0:	1e0258ef 	0x1e0258ef
10000bd4:	12a7d842 	beq	s5,a3,fff6ce0 <entry-0x9324>
10000bd8:	5b97ca20 	0x5b97ca20
10000bdc:	6820112d 	0x6820112d
10000be0:	1c84f724 	0x1c84f724
10000be4:	1a78c07a 	0x1a78c07a
10000be8:	6131b7cd 	0x6131b7cd
10000bec:	01bd0c3c 	0x1bd0c3c
10000bf0:	09659156 	j	15964558 <arr+0x5964148>
10000bf4:	6a9bf3bd 	0x6a9bf3bd
10000bf8:	7c168a83 	0x7c168a83
10000bfc:	70d41cd2 	0x70d41cd2
10000c00:	16a3448f 	bne	s5,v1,10011e40 <arr+0x11a30>
10000c04:	4ca4a5ab 	0x4ca4a5ab
10000c08:	2e831278 	sltiu	v1,s4,4728
10000c0c:	0ef0a731 	jal	1bc29cc4 <arr+0xbc298b4>
10000c10:	14962765 	bne	a0,s6,1000a9a8 <arr+0xa598>
10000c14:	52279b5b 	0x52279b5b
10000c18:	71c814f3 	0x71c814f3
10000c1c:	6dc0834e 	0x6dc0834e
10000c20:	3b8d1483 	xori	t5,gp,0x1483
10000c24:	66796994 	0x66796994
10000c28:	46aeeccc 	c1	0xaeeccc
10000c2c:	1ac11b4f 	0x1ac11b4f
10000c30:	14f889b0 	bne	a3,t8,ffe32f4 <entry-0x1cd10>
10000c34:	7fd05230 	0x7fd05230
10000c38:	1a021fcd 	0x1a021fcd
10000c3c:	04d7ba62 	0x4d7ba62
10000c40:	2e090e6c 	sltiu	t1,s0,3692
10000c44:	1fec14d4 	0x1fec14d4
10000c48:	7baeb5c9 	0x7baeb5c9
10000c4c:	70bfa9f4 	0x70bfa9f4
10000c50:	19a4c666 	0x19a4c666
10000c54:	3f73bb43 	0x3f73bb43
10000c58:	43d6d3a1 	c0	0x1d6d3a1
10000c5c:	61cf91c8 	0x61cf91c8
10000c60:	4c722118 	0x4c722118
10000c64:	467331e5 	c1	0x7331e5
10000c68:	3ed3233e 	0x3ed3233e
10000c6c:	6908b69f 	0x6908b69f
10000c70:	0a9a13ad 	j	1a684eb4 <arr+0xa684aa4>
10000c74:	62b91f17 	0x62b91f17
10000c78:	221e2244 	addi	s8,s0,8772
10000c7c:	205b6500 	addi	k1,v0,25856
10000c80:	30cfaa62 	andi	t7,a2,0xaa62
10000c84:	111c7330 	beq	t0,gp,1001d948 <arr+0x1d538>
10000c88:	5e5d925d 	0x5e5d925d
10000c8c:	44711a02 	0x44711a02
10000c90:	381cf2d9 	xori	gp,zero,0xf2d9
10000c94:	226bb467 	addi	t3,s3,-19353
10000c98:	1635dd00 	bne	s1,s5,fff809c <entry-0x7f68>
10000c9c:	02a888ff 	0x2a888ff
10000ca0:	17d8f8f4 	bne	s8,t8,ffff074 <entry-0xf90>
10000ca4:	163c5341 	bne	s1,gp,100159ac <arr+0x1559c>
10000ca8:	746f3493 	jalx	11bcd24c <arr+0x1bcce3c>
10000cac:	3e34ad94 	0x3e34ad94
10000cb0:	000c375b 	0xc375b
10000cb4:	77d1f242 	jalx	1f47c908 <arr+0xf47c4f8>
10000cb8:	4af95515 	c2	0xf95515
10000cbc:	12921d30 	beq	s4,s2,10008180 <arr+0x7d70>
10000cc0:	62195ee1 	0x62195ee1
10000cc4:	75f47b59 	jalx	17d1ed64 <arr+0x7d1e954>
10000cc8:	199c74d3 	0x199c74d3
10000ccc:	1722476a 	bne	t9,v0,10012a78 <arr+0x12668>
10000cd0:	2607f3ef 	addiu	a3,s0,-3089
10000cd4:	59d59959 	0x59d59959
10000cd8:	685c07b2 	0x685c07b2
10000cdc:	5a318c5b 	0x5a318c5b
10000ce0:	37427d0a 	ori	v0,k0,0x7d0a
10000ce4:	6e526191 	0x6e526191
10000ce8:	40bd3d40 	0x40bd3d40
10000cec:	74e7fd8b 	jalx	139ff62c <arr+0x39ff21c>
10000cf0:	143da2ec 	bne	at,sp,ffe98a4 <entry-0x16760>
10000cf4:	7318e92e 	0x7318e92e
10000cf8:	35431d2d 	ori	v1,t2,0x1d2d
10000cfc:	26b67f59 	addiu	s6,s5,32601
10000d00:	671cd327 	0x671cd327
10000d04:	043a948a 	0x43a948a
10000d08:	49be5151 	0x49be5151
10000d0c:	434c5a69 	c0	0x14c5a69
10000d10:	5251b505 	0x5251b505
10000d14:	4226b1d2 	c0	0x26b1d2
10000d18:	708ca6a7 	0x708ca6a7
10000d1c:	7043a11a 	0x7043a11a
10000d20:	2cd9e24b 	sltiu	t9,a2,-7605
10000d24:	46d879c6 	c1	0xd879c6
10000d28:	3c97d8f0 	0x3c97d8f0
10000d2c:	29f3c3b3 	slti	s3,t7,-15437
10000d30:	124231cb 	beq	s2,v0,1000d460 <arr+0xd050>
10000d34:	257c9b25 	addiu	gp,t3,-25819
10000d38:	7f3dae3e 	0x7f3dae3e
10000d3c:	47cee65c 	c1	0x1cee65c
10000d40:	69c4d74e 	0x69c4d74e
10000d44:	507574a3 	0x507574a3
10000d48:	7f5d614e 	0x7f5d614e
10000d4c:	60c9c357 	0x60c9c357
10000d50:	7cb00687 	0x7cb00687
10000d54:	026c6f2d 	0x26c6f2d
10000d58:	2188cc2f 	addi	t0,t4,-13265
10000d5c:	796863b6 	0x796863b6
10000d60:	00e409ea 	0xe409ea
10000d64:	6293a167 	0x6293a167
10000d68:	52bd06df 	0x52bd06df
10000d6c:	0be6912c 	j	1f9a44b0 <arr+0xf9a40a0>
10000d70:	296fa438 	slti	t7,t3,-23496
10000d74:	0c2bfd25 	jal	10aff494 <arr+0xaff084>
10000d78:	4e676eaa 	c3	0x676eaa
10000d7c:	479e376a 	c1	0x19e376a
10000d80:	3824b24b 	xori	a0,at,0xb24b
10000d84:	534b2afd 	0x534b2afd
10000d88:	4d36345c 	0x4d36345c
10000d8c:	7b93cddb 	0x7b93cddb
10000d90:	05043de5 	0x5043de5
10000d94:	7f6192bf 	0x7f6192bf
10000d98:	67f124d6 	0x67f124d6
10000d9c:	775ec68f 	jalx	1d7b1a3c <arr+0xd7b162c>
10000da0:	0af5ffa3 	j	1bd7fe8c <arr+0xbd7fa7c>
10000da4:	4af32046 	c2	0xf32046
10000da8:	3665dc37 	ori	a1,s3,0xdc37
10000dac:	48c3eb71 	0x48c3eb71
10000db0:	3523fdd8 	ori	v1,t1,0xfdd8
10000db4:	65548c71 	0x65548c71
10000db8:	7c8587bc 	0x7c8587bc
10000dbc:	566a681d 	0x566a681d
10000dc0:	3b064ea1 	xori	a2,t8,0x4ea1
10000dc4:	3afbd0b8 	xori	k1,s7,0xd0b8
10000dc8:	4710e547 	c1	0x110e547
10000dcc:	7092508b 	0x7092508b
10000dd0:	4cc1a027 	0x4cc1a027
10000dd4:	591eecaf 	0x591eecaf
10000dd8:	54f87b49 	0x54f87b49
10000ddc:	003d88ae 	0x3d88ae
10000de0:	4f73c599 	c3	0x173c599
10000de4:	6cdaa5c6 	0x6cdaa5c6
10000de8:	6ab75e26 	0x6ab75e26
10000dec:	71361200 	0x71361200
10000df0:	57e7a106 	0x57e7a106
10000df4:	6757a8a5 	0x6757a8a5
10000df8:	03c2b8b7 	0x3c2b8b7
10000dfc:	29cb339c 	slti	t3,t6,13212
10000e00:	283a5e33 	slti	k0,at,24115
10000e04:	04302082 	bltzal	at,10009010 <arr+0x8c00>
10000e08:	1517dc05 	bne	t0,s7,fff7e20 <entry-0x81e4>
10000e0c:	40a85b92 	0x40a85b92
10000e10:	3d693e21 	0x3d693e21
10000e14:	4a1d08d1 	c2	0x1d08d1
10000e18:	0787c5cd 	0x787c5cd
10000e1c:	260c4de0 	addiu	t4,s0,19936
10000e20:	04d34c46 	0x4d34c46
10000e24:	6ed3e191 	0x6ed3e191
10000e28:	6b461ae2 	0x6b461ae2
10000e2c:	228bcf52 	addi	t3,s4,-12462
10000e30:	0627b4db 	0x627b4db
10000e34:	3a5cd461 	xori	gp,s2,0xd461
10000e38:	65cd9daf 	0x65cd9daf
10000e3c:	3b403e9d 	xori	zero,k0,0x3e9d
10000e40:	2aa51f29 	slti	a1,s5,7977
10000e44:	3bd00a74 	xori	s0,s8,0xa74
10000e48:	25df5fa9 	addiu	ra,t6,24489
10000e4c:	4d183cca 	0x4d183cca
10000e50:	2c39ab16 	sltiu	t9,at,-21738
10000e54:	551f5a4d 	0x551f5a4d
10000e58:	3cce0c8b 	0x3cce0c8b
10000e5c:	579ae8ce 	0x579ae8ce
10000e60:	2a3b8e85 	slti	k1,s1,-29051
10000e64:	7c2e81d5 	0x7c2e81d5
10000e68:	1810ae22 	0x1810ae22
10000e6c:	7b5fb0ab 	0x7b5fb0ab
10000e70:	25e34306 	addiu	v1,t7,17158
10000e74:	2943374a 	slti	v1,t2,14154
10000e78:	10259ce5 	beq	at,a1,ffe8210 <entry-0x17df4>
10000e7c:	4ca5b3de 	0x4ca5b3de
10000e80:	53bce44c 	0x53bce44c
10000e84:	33213b96 	andi	at,t9,0x3b96
10000e88:	729bf562 	0x729bf562
10000e8c:	7b2bc314 	0x7b2bc314
10000e90:	5504174c 	0x5504174c
10000e94:	042a2d8f 	0x42a2d8f
10000e98:	11ee0b5b 	beq	t7,t6,10003c08 <arr+0x37f8>
10000e9c:	37217acf 	ori	at,t9,0x7acf
10000ea0:	78f7dbed 	0x78f7dbed
10000ea4:	2540b104 	addiu	zero,t2,-20220
10000ea8:	1c4f427d 	0x1c4f427d
10000eac:	7407b8ff 	jalx	101ee3fc <arr+0x1edfec>
10000eb0:	78db4c3f 	0x78db4c3f
10000eb4:	71ad9286 	0x71ad9286
10000eb8:	187d0676 	0x187d0676
10000ebc:	5b6c7993 	0x5b6c7993
10000ec0:	7c1ccb51 	0x7c1ccb51
10000ec4:	69904384 	0x69904384
10000ec8:	463cf6bb 	c1	0x3cf6bb
10000ecc:	25bb66c1 	addiu	k1,t5,26305
10000ed0:	4a7d5d29 	c2	0x7d5d29
10000ed4:	4521d9ae 	0x4521d9ae
10000ed8:	6f6160d9 	0x6f6160d9
10000edc:	5e865706 	0x5e865706
10000ee0:	04c28341 	0x4c28341
10000ee4:	021728e9 	0x21728e9
10000ee8:	5e0135d5 	0x5e0135d5
10000eec:	7a9e43a2 	0x7a9e43a2
10000ef0:	01a7367c 	0x1a7367c
10000ef4:	1bc9aa52 	0x1bc9aa52
10000ef8:	7305d69c 	0x7305d69c
10000efc:	7e353bec 	0x7e353bec
10000f00:	209147ac 	addi	s1,a0,18348
10000f04:	2c05162a 	sltiu	a1,zero,5674
10000f08:	7f2559a6 	0x7f2559a6
10000f0c:	6a51f2eb 	0x6a51f2eb
10000f10:	55f82468 	0x55f82468
10000f14:	5d79f5d6 	0x5d79f5d6
10000f18:	1d18c653 	0x1d18c653
10000f1c:	4c3083ef 	0x4c3083ef
10000f20:	6387285b 	0x6387285b
10000f24:	6f9b4191 	0x6f9b4191
10000f28:	7696d1a5 	jalx	1a5b4694 <arr+0xa5b4284>
10000f2c:	0f766b7d 	jal	1dd9adf4 <arr+0xdd9a9e4>
10000f30:	1cd46e93 	0x1cd46e93
10000f34:	6424094f 	0x6424094f
10000f38:	6e111b43 	0x6e111b43
10000f3c:	0280d0cf 	0x280d0cf
10000f40:	5341310c 	0x5341310c
10000f44:	53393e4c 	0x53393e4c
10000f48:	013dbe26 	0x13dbe26
10000f4c:	136ba210 	beq	k1,t3,ffe9790 <entry-0x16874>
10000f50:	3e6a9ae4 	0x3e6a9ae4
10000f54:	232162b6 	addi	at,t9,25270
10000f58:	4ccf4fc1 	0x4ccf4fc1
10000f5c:	199bb4e4 	0x199bb4e4
10000f60:	52fff8b8 	0x52fff8b8
10000f64:	46be3132 	c1	0xbe3132
10000f68:	20bc60f2 	addi	gp,a1,24818
10000f6c:	67e7d63f 	0x67e7d63f
10000f70:	7862bebe 	0x7862bebe
10000f74:	4a2e1c6f 	c2	0x2e1c6f
10000f78:	674a02ab 	0x674a02ab
10000f7c:	642a59d1 	0x642a59d1
10000f80:	2c623709 	sltiu	v0,v1,14089
10000f84:	04626b88 	0x4626b88
10000f88:	30c7653d 	andi	a3,a2,0x653d
10000f8c:	758cc101 	jalx	16330404 <arr+0x632fff4>
10000f90:	64f77259 	0x64f77259
10000f94:	6efc3906 	0x6efc3906
10000f98:	4c75a8d8 	0x4c75a8d8
10000f9c:	6091b693 	0x6091b693
10000fa0:	65599cbe 	0x65599cbe
10000fa4:	316f5e2d 	andi	t7,t3,0x5e2d
10000fa8:	33ca0702 	andi	t2,s8,0x702
10000fac:	5470f746 	0x5470f746
10000fb0:	02f2b2c8 	0x2f2b2c8
10000fb4:	16e0e111 	bnez	s7,fff93fc <entry-0x6c08>
10000fb8:	6fcff98b 	0x6fcff98b
10000fbc:	4f757e87 	c3	0x1757e87
10000fc0:	7070c350 	0x7070c350
10000fc4:	620349a7 	0x620349a7
10000fc8:	54b519df 	0x54b519df
10000fcc:	163e1648 	bne	s1,s8,100068f0 <arr+0x64e0>
10000fd0:	7e730b71 	0x7e730b71
10000fd4:	7f0a79f1 	0x7f0a79f1
10000fd8:	478c220f 	c1	0x18c220f
10000fdc:	3ed4c691 	0x3ed4c691
10000fe0:	6e834c9f 	0x6e834c9f
10000fe4:	05185374 	0x5185374
10000fe8:	46c2e4e1 	c1	0xc2e4e1
10000fec:	74070039 	jalx	101c00e4 <arr+0x1bfcd4>
10000ff0:	3dd4f319 	0x3dd4f319
10000ff4:	2d6cd802 	sltiu	t4,t3,-10238
10000ff8:	6ae98ae1 	0x6ae98ae1
10000ffc:	3f07b513 	0x3f07b513
10001000:	0aa555fd 	j	1a9557f4 <arr+0xa9553e4>
10001004:	61694ec5 	0x61694ec5
10001008:	3fb1026f 	0x3fb1026f
1000100c:	41a10a24 	0x41a10a24
10001010:	49f6a878 	0x49f6a878
10001014:	35d1ee20 	ori	s1,t6,0xee20
10001018:	512de4f8 	0x512de4f8
1000101c:	2aeb0c7d 	slti	t3,s7,3197
10001020:	5712b379 	0x5712b379
10001024:	6a2daad2 	0x6a2daad2
10001028:	565ee7b2 	0x565ee7b2
1000102c:	56bbf58e 	0x56bbf58e
10001030:	7a5503be 	0x7a5503be
10001034:	6dfdcd6b 	0x6dfdcd6b
10001038:	0ec247a4 	jal	1b091e90 <arr+0xb091a80>
1000103c:	52cfa78b 	0x52cfa78b
10001040:	11dc081f 	beq	t6,gp,100030c0 <arr+0x2cb0>
10001044:	64e8de30 	0x64e8de30
10001048:	617d97df 	0x617d97df
1000104c:	245153bc 	addiu	s1,v0,21436
10001050:	1be45e88 	0x1be45e88
10001054:	152dc324 	bne	t1,t5,fff1ce8 <entry-0xe31c>
10001058:	239ecf64 	addi	s8,gp,-12444
1000105c:	484b3ee3 	0x484b3ee3
10001060:	43f9fea0 	c0	0x1f9fea0
10001064:	019ffc3e 	0x19ffc3e
10001068:	6cd8ee62 	0x6cd8ee62
1000106c:	29b095b4 	slti	s0,t5,-27212
10001070:	7c5b4795 	0x7c5b4795
10001074:	697fcc46 	0x697fcc46
10001078:	76c02dd6 	jalx	1b00b758 <arr+0xb00b348>
1000107c:	3d51921e 	0x3d51921e
10001080:	37bdd48b 	ori	sp,sp,0xd48b
10001084:	08b298da 	j	12ca6368 <arr+0x2ca5f58>
10001088:	1cdf8314 	0x1cdf8314
1000108c:	288329bc 	slti	v1,a0,10684
10001090:	0d9cedba 	jal	1673b6e8 <arr+0x673b2d8>
10001094:	47f741da 	c1	0x1f741da
10001098:	26f5b7d2 	addiu	s5,s7,-18478
1000109c:	4b2bf1ec 	c2	0x12bf1ec
100010a0:	4af1b621 	c2	0xf1b621
100010a4:	04754c9c 	0x4754c9c
100010a8:	27e35e92 	addiu	v1,ra,24210
100010ac:	56452bf3 	0x56452bf3
100010b0:	06374a9c 	0x6374a9c
100010b4:	3ad7c1c1 	xori	s7,s6,0xc1c1
100010b8:	09e8b1cc 	j	17a2c730 <arr+0x7a2c320>
100010bc:	6e00c6aa 	0x6e00c6aa
100010c0:	00ae62a4 	0xae62a4
100010c4:	6604b339 	0x6604b339
100010c8:	6e7d8388 	0x6e7d8388
100010cc:	4cb48d38 	0x4cb48d38
100010d0:	1b6e9a99 	0x1b6e9a99
100010d4:	6b8fe1d7 	0x6b8fe1d7
100010d8:	0916db87 	j	145b6e1c <arr+0x45b6a0c>
100010dc:	39c85f15 	xori	t0,t6,0x5f15
100010e0:	72620003 	0x72620003
100010e4:	2ae8b8b3 	slti	t0,s7,-18253
100010e8:	3b4583e0 	xori	a1,k0,0x83e0
100010ec:	44965a0b 	0x44965a0b
100010f0:	18714197 	0x18714197
100010f4:	48667edf 	0x48667edf
100010f8:	6b6dc176 	0x6b6dc176
100010fc:	39b48165 	xori	s4,t5,0x8165
10001100:	73d046d1 	0x73d046d1
10001104:	74920d13 	jalx	1248344c <arr+0x248303c>
10001108:	0a4c3ae6 	j	1930eb98 <arr+0x930e788>
1000110c:	1f37c62d 	0x1f37c62d
10001110:	5f84113f 	0x5f84113f
10001114:	620e2a6b 	0x620e2a6b
10001118:	5d6d0373 	0x5d6d0373
1000111c:	38a11570 	xori	at,a1,0x1570
10001120:	253d731c 	addiu	sp,t1,29468
10001124:	373fb286 	ori	ra,t9,0xb286
10001128:	249a0d83 	addiu	k0,a0,3459
1000112c:	06ac5fba 	0x6ac5fba
10001130:	1fc43532 	0x1fc43532
10001134:	3317fca0 	andi	s7,t8,0xfca0
10001138:	41111f2c 	0x41111f2c
1000113c:	26c8a89c 	addiu	t0,s6,-22372
10001140:	4849c215 	0x4849c215
10001144:	74797855 	jalx	11e5e154 <arr+0x1e5dd44>
10001148:	020e765d 	0x20e765d
1000114c:	43ae1de9 	c0	0x1ae1de9
10001150:	2f5e123a 	sltiu	s8,k0,4666
10001154:	58343613 	0x58343613
10001158:	7c3eaa85 	0x7c3eaa85
1000115c:	1a665ee2 	0x1a665ee2
10001160:	529cfef1 	0x529cfef1
10001164:	6a6d77b9 	0x6a6d77b9
10001168:	41ce3aa8 	0x41ce3aa8
1000116c:	66239385 	0x66239385
10001170:	39834a50 	xori	v1,t4,0x4a50
10001174:	1215cb92 	beq	s0,s5,fff3fc0 <entry-0xc044>
10001178:	20ab693b 	addi	t3,a1,26939
1000117c:	4e8813e1 	c3	0x8813e1
10001180:	0d75a61b 	jal	15d6986c <arr+0x5d6945c>
10001184:	74c4aecf 	jalx	1312bb3c <arr+0x312b72c>
10001188:	7be65e2a 	0x7be65e2a
1000118c:	6eed5431 	0x6eed5431
10001190:	25b4495a 	addiu	s4,t5,18778
10001194:	5ee663cd 	0x5ee663cd
10001198:	6649de40 	0x6649de40
1000119c:	01153cef 	0x1153cef
100011a0:	3ad07a7a 	xori	s0,s6,0x7a7a
100011a4:	30bee1ea 	andi	s8,a1,0xe1ea
100011a8:	45e97ad0 	0x45e97ad0
100011ac:	7ef85c7c 	0x7ef85c7c
100011b0:	509c4ad6 	0x509c4ad6
100011b4:	1c075f01 	0x1c075f01
100011b8:	7e817f24 	0x7e817f24
100011bc:	1173454d 	beq	t3,s3,100126f4 <arr+0x122e4>
100011c0:	5cafa20a 	0x5cafa20a
100011c4:	748b2c10 	jalx	122cb040 <arr+0x22cac30>
100011c8:	412aa8ec 	0x412aa8ec
100011cc:	54268496 	0x54268496
100011d0:	67a93972 	0x67a93972
100011d4:	58903a15 	0x58903a15
100011d8:	3eed664b 	0x3eed664b
100011dc:	2bebc981 	slti	t3,ra,-13951
100011e0:	0abb5ad0 	j	1aed6b40 <arr+0xaed6730>
100011e4:	1f0e555e 	0x1f0e555e
100011e8:	2f9f76d5 	sltiu	ra,gp,30421
100011ec:	42b2a8fc 	c0	0xb2a8fc
100011f0:	697a9eec 	0x697a9eec
100011f4:	2863daaf 	slti	v1,v1,-9553
100011f8:	093b6753 	j	14ed9d4c <arr+0x4ed993c>
100011fc:	09352411 	j	14d49044 <arr+0x4d48c34>
10001200:	35ebaf21 	ori	t3,t7,0xaf21
10001204:	25711006 	addiu	s1,t3,4102
10001208:	5ed9c659 	0x5ed9c659
1000120c:	1662dde1 	bne	s3,v0,fff8994 <entry-0x7670>
10001210:	46ca2346 	c1	0xca2346
10001214:	7378cffd 	0x7378cffd
10001218:	2a07541d 	slti	a3,s0,21533
1000121c:	68853f2b 	0x68853f2b
10001220:	7026dba8 	0x7026dba8
10001224:	1d405903 	bgtz	t2,10017634 <arr+0x17224>
10001228:	11a617a4 	beq	t5,a2,100070bc <arr+0x6cac>
1000122c:	20932e37 	addi	s3,a0,11831
10001230:	0bcf7853 	j	1f3de14c <arr+0xf3ddd3c>
10001234:	47181637 	c1	0x1181637
10001238:	0b15a4da 	j	1c569368 <arr+0xc568f58>
1000123c:	25ec5741 	addiu	t4,t7,22337
10001240:	0a8aa269 	j	1a2a89a4 <arr+0xa2a8594>
10001244:	47d511d8 	c1	0x1d511d8
10001248:	02298754 	0x2298754
1000124c:	6634c563 	0x6634c563
10001250:	1a08723b 	0x1a08723b
10001254:	7950eaca 	0x7950eaca
10001258:	596a32ac 	0x596a32ac
1000125c:	4a564226 	c2	0x564226
10001260:	2a8a725b 	slti	t2,s4,29275
10001264:	4a2f1eef 	c2	0x2f1eef
10001268:	58f4b9d0 	0x58f4b9d0
1000126c:	23d6457d 	addi	s6,s8,17789
10001270:	6351cb1d 	0x6351cb1d
10001274:	09649b7c 	j	15926df0 <arr+0x59269e0>
10001278:	4429bb63 	0x4429bb63
1000127c:	7937f69d 	0x7937f69d
10001280:	64d00e08 	0x64d00e08
10001284:	24600e05 	addiu	zero,v1,3589
10001288:	3ee8dfd1 	0x3ee8dfd1
1000128c:	1abfdbea 	0x1abfdbea
10001290:	368ee191 	ori	t6,s4,0xe191
10001294:	4422cdee 	0x4422cdee
10001298:	411e6951 	0x411e6951
1000129c:	75e74ffc 	jalx	179d3ff0 <arr+0x79d3be0>
100012a0:	1cd6f891 	0x1cd6f891
100012a4:	2cd8e141 	sltiu	t8,a2,-7871
100012a8:	68308864 	0x68308864
100012ac:	15e21b54 	bne	t7,v0,10008000 <arr+0x7bf0>
100012b0:	1b28495d 	0x1b28495d
100012b4:	5f909d91 	0x5f909d91
100012b8:	713a4a1e 	0x713a4a1e
100012bc:	01a07c2c 	0x1a07c2c
100012c0:	2307d43c 	addi	a3,t8,-11204
100012c4:	116d91f6 	beq	t3,t5,ffe5aa0 <entry-0x1a564>
100012c8:	74b534a8 	jalx	12d4d2a0 <arr+0x2d4ce90>
100012cc:	483e082f 	0x483e082f
100012d0:	7f871429 	0x7f871429
100012d4:	097d9e67 	j	15f6799c <arr+0x5f6758c>
100012d8:	56eab32d 	0x56eab32d
100012dc:	14250e6d 	bne	at,a1,10004c94 <arr+0x4884>
100012e0:	63a5e081 	0x63a5e081
100012e4:	7b4853d2 	0x7b4853d2
100012e8:	0cf975a8 	jal	13e5d6a0 <arr+0x3e5d290>
100012ec:	3d0eebda 	0x3d0eebda
100012f0:	71c2853a 	0x71c2853a
100012f4:	5e258ae9 	0x5e258ae9
100012f8:	0802f12a 	j	100bc4a8 <arr+0xbc098>
100012fc:	44e0b295 	0x44e0b295
10001300:	5ee0e468 	0x5ee0e468
10001304:	41d86e37 	0x41d86e37
10001308:	2ff76027 	sltiu	s7,ra,24615
1000130c:	7844ada1 	0x7844ada1
10001310:	2b288508 	slti	t0,t9,-31480
10001314:	6214f278 	0x6214f278
10001318:	21ed240e 	addi	t5,t7,9230
1000131c:	03cfdda6 	0x3cfdda6
10001320:	6add77ad 	0x6add77ad
10001324:	072dec2b 	0x72dec2b
10001328:	60b4df31 	0x60b4df31
1000132c:	73d24bf8 	0x73d24bf8
10001330:	73f8fd00 	0x73f8fd00
10001334:	64bc0bf8 	0x64bc0bf8
10001338:	704632ac 	0x704632ac
1000133c:	0705e01d 	0x705e01d
10001340:	608cde00 	0x608cde00
10001344:	679458c4 	0x679458c4
10001348:	06c52f3e 	0x6c52f3e
1000134c:	1128d41c 	beq	t1,t0,fff63c0 <entry-0x9c44>
10001350:	2ba0625a 	slti	zero,sp,25178
10001354:	1da66ee6 	0x1da66ee6
10001358:	57069494 	0x57069494
1000135c:	4bebd6a2 	c2	0x1ebd6a2
10001360:	4ebec206 	c3	0xbec206
10001364:	518bcd74 	0x518bcd74
10001368:	7b497eac 	0x7b497eac
1000136c:	77c5eebd 	jalx	1f17baf4 <arr+0xf17b6e4>
10001370:	2710ed9f 	addiu	s0,t8,-4705
10001374:	4d286d21 	0x4d286d21
10001378:	73d1bbfc 	0x73d1bbfc
1000137c:	2a46699b 	slti	a2,s2,27035
10001380:	36416248 	ori	at,s2,0x6248
10001384:	778841d6 	jalx	1e210758 <arr+0xe210348>
10001388:	5bc71ad4 	0x5bc71ad4
1000138c:	06a3195b 	0x6a3195b
10001390:	49bb8f1e 	0x49bb8f1e
10001394:	1fd59358 	0x1fd59358
10001398:	254fcdea 	addiu	t7,t2,-12822
1000139c:	29a46f94 	slti	a0,t5,28564
100013a0:	38032fd7 	xori	v1,zero,0x2fd7
100013a4:	44c6912a 	0x44c6912a
100013a8:	4468dc2c 	0x4468dc2c
100013ac:	1c2a3027 	0x1c2a3027

Disassembly of section .pdr:

00000000 <.pdr>:
   0:	10000004 	b	14 <entry-0xffffff0>
   4:	c0000000 	lwc0	c0_index,0(zero)
   8:	fffffffc 	0xfffffffc
	...
  14:	00000fd0 	0xfd0
  18:	0000001e 	0x1e
  1c:	0000001f 	0x1f
  20:	10000154 	b	574 <entry-0xffffa90>
  24:	40000000 	mfc0	zero,c0_index
  28:	fffffffc 	0xfffffffc
	...
  34:	00000018 	mult	zero,zero
  38:	0000001e 	0x1e
  3c:	0000001f 	0x1f
  40:	100001bc 	b	734 <entry-0xffff8d0>
  44:	c0000000 	lwc0	c0_index,0(zero)
  48:	fffffffc 	0xfffffffc
	...
  54:	00000030 	0x30
  58:	0000001e 	0x1e
  5c:	0000001f 	0x1f
  60:	10000330 	b	d24 <entry-0xffff2e0>
  64:	c0000000 	lwc0	c0_index,0(zero)
  68:	fffffffc 	0xfffffffc
	...
  74:	00000028 	0x28
  78:	0000001e 	0x1e
  7c:	0000001f 	0x1f

Disassembly of section .comment:

00000000 <.comment>:
   0:	4743433a 	c1	0x143433a
   4:	20285562 	addi	t0,at,21858
   8:	756e7475 	jalx	5b9d1d4 <entry-0xa462e30>
   c:	20352e34 	addi	s5,at,11828
  10:	2e302d36 	sltiu	s0,s1,11574
  14:	7562756e 	jalx	589d5b8 <entry-0xa762a4c>
  18:	7475317e 	jalx	1d4c5f8 <entry-0xe2b3a0c>
  1c:	31362e30 	andi	s6,t1,0x2e30
  20:	342e3129 	ori	t6,at,0x3129
  24:	20352e34 	addi	s5,at,11828
  28:	2e302032 	sltiu	s0,s1,8242
  2c:	30313630 	andi	s1,at,0x3630
  30:	36303900 	ori	s0,s1,0x3900

Disassembly of section .gnu.attributes:

00000000 <.gnu.attributes>:
   0:	41000000 	bc0f	4 <entry-0x10000000>
   4:	0f676e75 	jal	d9db9d4 <entry-0x2624630>
   8:	00010000 	sll	zero,at,0x0
   c:	00070401 	0x70401
