
testbench/_c_code/rec_bin_search.mips.elf:     file format elf32-tradbigmips


Disassembly of section .text:

10000000 <entry-0x4>:
10000000:	3c1d2400 	lui	sp,0x2400

10000004 <entry>:
10000004:	27bdffd8 	addiu	sp,sp,-40
10000008:	afbf0024 	sw	ra,36(sp)
1000000c:	afbe0020 	sw	s8,32(sp)
10000010:	03a0f025 	move	s8,sp
10000014:	240203e8 	li	v0,1000
10000018:	afc20018 	sw	v0,24(s8)
1000001c:	8fc20018 	lw	v0,24(s8)
10000020:	00000000 	nop
10000024:	2443ffff 	addiu	v1,v0,-1
10000028:	3c02010e 	lui	v0,0x10e
1000002c:	34470994 	ori	a3,v0,0x994
10000030:	00603025 	move	a2,v1
10000034:	00002825 	move	a1,zero
10000038:	3c021000 	lui	v0,0x1000
1000003c:	244401e0 	addiu	a0,v0,480
10000040:	0c00001a 	jal	10000068 <binarySearch>
10000044:	00000000 	nop
10000048:	afc2001c 	sw	v0,28(s8)
1000004c:	8fc2001c 	lw	v0,28(s8)
10000050:	03c0e825 	move	sp,s8
10000054:	8fbf0024 	lw	ra,36(sp)
10000058:	8fbe0020 	lw	s8,32(sp)
1000005c:	27bd0028 	addiu	sp,sp,40
10000060:	03e00008 	jr	ra
10000064:	00000000 	nop

10000068 <binarySearch>:
10000068:	27bdffd8 	addiu	sp,sp,-40
1000006c:	afbf0024 	sw	ra,36(sp)
10000070:	afbe0020 	sw	s8,32(sp)
10000074:	03a0f025 	move	s8,sp
10000078:	afc40028 	sw	a0,40(s8)
1000007c:	afc5002c 	sw	a1,44(s8)
10000080:	afc60030 	sw	a2,48(s8)
10000084:	afc70034 	sw	a3,52(s8)
10000088:	8fc30030 	lw	v1,48(s8)
1000008c:	8fc2002c 	lw	v0,44(s8)
10000090:	00000000 	nop
10000094:	0062102a 	slt	v0,v1,v0
10000098:	1440003d 	bnez	v0,10000190 <binarySearch+0x128>
1000009c:	00000000 	nop
100000a0:	8fc30030 	lw	v1,48(s8)
100000a4:	8fc2002c 	lw	v0,44(s8)
100000a8:	00000000 	nop
100000ac:	00621023 	subu	v0,v1,v0
100000b0:	00021fc2 	srl	v1,v0,0x1f
100000b4:	00621021 	addu	v0,v1,v0
100000b8:	00021043 	sra	v0,v0,0x1
100000bc:	00401825 	move	v1,v0
100000c0:	8fc2002c 	lw	v0,44(s8)
100000c4:	00000000 	nop
100000c8:	00621021 	addu	v0,v1,v0
100000cc:	afc20018 	sw	v0,24(s8)
100000d0:	8fc20018 	lw	v0,24(s8)
100000d4:	00000000 	nop
100000d8:	00021080 	sll	v0,v0,0x2
100000dc:	8fc30028 	lw	v1,40(s8)
100000e0:	00000000 	nop
100000e4:	00621021 	addu	v0,v1,v0
100000e8:	8c430000 	lw	v1,0(v0)
100000ec:	8fc20034 	lw	v0,52(s8)
100000f0:	00000000 	nop
100000f4:	14620004 	bne	v1,v0,10000108 <binarySearch+0xa0>
100000f8:	00000000 	nop
100000fc:	8fc20018 	lw	v0,24(s8)
10000100:	10000024 	b	10000194 <binarySearch+0x12c>
10000104:	00000000 	nop
10000108:	8fc20018 	lw	v0,24(s8)
1000010c:	00000000 	nop
10000110:	00021080 	sll	v0,v0,0x2
10000114:	8fc30028 	lw	v1,40(s8)
10000118:	00000000 	nop
1000011c:	00621021 	addu	v0,v1,v0
10000120:	8c430000 	lw	v1,0(v0)
10000124:	8fc20034 	lw	v0,52(s8)
10000128:	00000000 	nop
1000012c:	0043102a 	slt	v0,v0,v1
10000130:	1040000c 	beqz	v0,10000164 <binarySearch+0xfc>
10000134:	00000000 	nop
10000138:	8fc20018 	lw	v0,24(s8)
1000013c:	00000000 	nop
10000140:	2442ffff 	addiu	v0,v0,-1
10000144:	8fc70034 	lw	a3,52(s8)
10000148:	00403025 	move	a2,v0
1000014c:	8fc5002c 	lw	a1,44(s8)
10000150:	8fc40028 	lw	a0,40(s8)
10000154:	0c00001a 	jal	10000068 <binarySearch>
10000158:	00000000 	nop
1000015c:	1000000d 	b	10000194 <binarySearch+0x12c>
10000160:	00000000 	nop
10000164:	8fc20018 	lw	v0,24(s8)
10000168:	00000000 	nop
1000016c:	24420001 	addiu	v0,v0,1
10000170:	8fc70034 	lw	a3,52(s8)
10000174:	8fc60030 	lw	a2,48(s8)
10000178:	00402825 	move	a1,v0
1000017c:	8fc40028 	lw	a0,40(s8)
10000180:	0c00001a 	jal	10000068 <binarySearch>
10000184:	00000000 	nop
10000188:	10000002 	b	10000194 <binarySearch+0x12c>
1000018c:	00000000 	nop
10000190:	2402ffff 	li	v0,-1
10000194:	03c0e825 	move	sp,s8
10000198:	8fbf0024 	lw	ra,36(sp)
1000019c:	8fbe0020 	lw	s8,32(sp)
100001a0:	27bd0028 	addiu	sp,sp,40
100001a4:	03e00008 	jr	ra
100001a8:	00000000 	nop
100001ac:	00000000 	nop

Disassembly of section .reginfo:

100001b0 <.reginfo>:
100001b0:	e00000fc 	swc0	c0_index,252(zero)
	...

Disassembly of section .MIPS.abiflags:

100001c8 <.MIPS.abiflags>:
100001c8:	00000100 	sll	zero,zero,0x4
100001cc:	01010001 	0x1010001
	...

Disassembly of section .rodata:

100001e0 <arr>:
100001e0:	000ce5a0 	0xce5a0
100001e4:	002c93a3 	0x2c93a3
100001e8:	003f8c69 	0x3f8c69
100001ec:	004aaf5f 	0x4aaf5f
100001f0:	0072e7ea 	0x72e7ea
100001f4:	0093e338 	0x93e338
100001f8:	00f10b39 	0xf10b39
100001fc:	00f644a0 	0xf644a0
10000200:	010e0994 	0x10e0994
10000204:	011f4fcb 	0x11f4fcb
10000208:	012c15ed 	0x12c15ed
1000020c:	013f609f 	0x13f609f
10000210:	014eba22 	0x14eba22
10000214:	01b13fca 	0x1b13fca
10000218:	01d09546 	0x1d09546
1000021c:	01d75e19 	0x1d75e19
10000220:	01dec9c2 	0x1dec9c2
10000224:	020e880d 	break	0x20e,0x220
10000228:	02474f16 	0x2474f16
1000022c:	0271132f 	0x271132f
10000230:	027873a3 	0x27873a3
10000234:	0284ce39 	0x284ce39
10000238:	02d14f9a 	0x2d14f9a
1000023c:	02d9d392 	0x2d9d392
10000240:	02e06c4f 	0x2e06c4f
10000244:	030a5dba 	0x30a5dba
10000248:	0331a9c0 	0x331a9c0
1000024c:	039a02a2 	0x39a02a2
10000250:	03b869e6 	0x3b869e6
10000254:	03c2675f 	0x3c2675f
10000258:	03f9ebb5 	0x3f9ebb5
1000025c:	04153255 	0x4153255
10000260:	0473531e 	0x473531e
10000264:	04832e26 	0x4832e26
10000268:	04913126 	bgezal	a0,1000c704 <arr+0xc524>
1000026c:	04b07181 	bltzal	a1,1001c874 <arr+0x1c694>
10000270:	04f1d80e 	bgezal	a3,fff62ac <entry-0x9d58>
10000274:	051e6b23 	0x51e6b23
10000278:	052937ff 	0x52937ff
1000027c:	058e1cc7 	0x58e1cc7
10000280:	0593e5ee 	0x593e5ee
10000284:	05c9804e 	0x5c9804e
10000288:	05ca19b5 	0x5ca19b5
1000028c:	05d7f6a5 	0x5d7f6a5
10000290:	06557dc7 	0x6557dc7
10000294:	067908c5 	0x67908c5
10000298:	0682c2e4 	0x682c2e4
1000029c:	06fa3159 	0x6fa3159
100002a0:	0725ee0c 	0x725ee0c
100002a4:	073c8015 	0x73c8015
100002a8:	078edbcc 	0x78edbcc
100002ac:	07b3471c 	0x7b3471c
100002b0:	07c31322 	0x7c31322
100002b4:	07f09488 	bltzal	ra,ffe54d8 <entry-0x1ab2c>
100002b8:	080793fc 	j	101e4ff0 <arr+0x1e4e10>
100002bc:	08184170 	j	106105c0 <arr+0x6103e0>
100002c0:	085be494 	j	116f9250 <arr+0x16f9070>
100002c4:	085e9091 	j	117a4244 <arr+0x17a4064>
100002c8:	08678e7c 	j	119e39f0 <arr+0x19e3810>
100002cc:	08728a4b 	j	11ca292c <arr+0x1ca274c>
100002d0:	0880ff0c 	j	1203fc30 <arr+0x203fa50>
100002d4:	089f5541 	j	127d5504 <arr+0x27d5324>
100002d8:	08afadb9 	j	12beb6e4 <arr+0x2beb504>
100002dc:	08c62a31 	j	1318a8c4 <arr+0x318a6e4>
100002e0:	08f7e975 	j	13dfa5d4 <arr+0x3dfa3f4>
100002e4:	08fa5931 	j	13e964c4 <arr+0x3e962e4>
100002e8:	0912f2a8 	j	144bcaa0 <arr+0x44bc8c0>
100002ec:	0939c329 	j	14e70ca4 <arr+0x4e70ac4>
100002f0:	093c5316 	j	14f14c58 <arr+0x4f14a78>
100002f4:	0a3c33ad 	j	18f0ceb4 <arr+0x8f0ccd4>
100002f8:	0a640ec8 	j	19903b20 <arr+0x9903940>
100002fc:	0a66def7 	j	199b7bdc <arr+0x99b79fc>
10000300:	0a81c2e0 	j	1a070b80 <arr+0xa0709a0>
10000304:	0a81f972 	j	1a07e5c8 <arr+0xa07e3e8>
10000308:	0abed8da 	j	1afb6368 <arr+0xafb6188>
1000030c:	0add216f 	j	1b7485bc <arr+0xb7483dc>
10000310:	0af9c3f0 	j	1be70fc0 <arr+0xbe70de0>
10000314:	0b13b997 	j	1c4ee65c <arr+0xc4ee47c>
10000318:	0b4c3f17 	j	1d30fc5c <arr+0xd30fa7c>
1000031c:	0b6b8ea3 	j	1dae3a8c <arr+0xdae38ac>
10000320:	0b6c9ca3 	j	1db2728c <arr+0xdb270ac>
10000324:	0b70c8a8 	j	1dc322a0 <arr+0xdc320c0>
10000328:	0b7234de 	j	1dc8d378 <arr+0xdc8d198>
1000032c:	0b76b081 	j	1ddac204 <arr+0xddac024>
10000330:	0b8e66fe 	j	1e399bf8 <arr+0xe399a18>
10000334:	0b8fe2fa 	j	1e3f8be8 <arr+0xe3f8a08>
10000338:	0b937d58 	j	1e4df560 <arr+0xe4df380>
1000033c:	0bb883e3 	j	1ee20f8c <arr+0xee20dac>
10000340:	0bf89b2c 	j	1fe26cb0 <arr+0xfe26ad0>
10000344:	0c1bd508 	jal	106f5420 <arr+0x6f5240>
10000348:	0c3ebb88 	jal	10faee20 <arr+0xfaec40>
1000034c:	0c41d17d 	jal	110745f4 <arr+0x1074414>
10000350:	0c4ad308 	jal	112b4c20 <arr+0x12b4a40>
10000354:	0c4b349b 	jal	112cd26c <arr+0x12cd08c>
10000358:	0c7840b6 	jal	11e102d8 <arr+0x1e100f8>
1000035c:	0c7db33f 	jal	11f6ccfc <arr+0x1f6cb1c>
10000360:	0c804e5d 	jal	12013974 <arr+0x2013794>
10000364:	0c979aee 	jal	125e6bb8 <arr+0x25e69d8>
10000368:	0cabb9d4 	jal	12aee750 <arr+0x2aee570>
1000036c:	0ce163c0 	jal	13858f00 <arr+0x3858d20>
10000370:	0ce5f833 	jal	1397e0cc <arr+0x397deec>
10000374:	0d0f5bee 	jal	143d6fb8 <arr+0x43d6dd8>
10000378:	0d431d98 	jal	150c7660 <arr+0x50c7480>
1000037c:	0d4727da 	jal	151c9f68 <arr+0x51c9d88>
10000380:	0d8c678f 	jal	16319e3c <arr+0x6319c5c>
10000384:	0d9518f6 	jal	165463d8 <arr+0x65461f8>
10000388:	0da8e4e0 	jal	16a39380 <arr+0x6a391a0>
1000038c:	0dba9634 	jal	16ea58d0 <arr+0x6ea56f0>
10000390:	0e064a87 	jal	18192a1c <arr+0x819283c>
10000394:	0e0aaaf5 	jal	182aabd4 <arr+0x82aa9f4>
10000398:	0e2c8874 	jal	18b221d0 <arr+0x8b21ff0>
1000039c:	0e4a2e44 	jal	1928b910 <arr+0x928b730>
100003a0:	0ea78e32 	jal	1a9e38c8 <arr+0xa9e36e8>
100003a4:	0ee1bb82 	jal	1b86ee08 <arr+0xb86ec28>
100003a8:	0ef9c02c 	jal	1be700b0 <arr+0xbe6fed0>
100003ac:	0f03bb24 	jal	1c0eec90 <arr+0xc0eeab0>
100003b0:	0f0f31cc 	jal	1c3cc730 <arr+0xc3cc550>
100003b4:	0f13786b 	jal	1c4de1ac <arr+0xc4ddfcc>
100003b8:	0f1f9b2f 	jal	1c7e6cbc <arr+0xc7e6adc>
100003bc:	0f68ab74 	jal	1da2add0 <arr+0xda2abf0>
100003c0:	0f8027e0 	jal	1e009f80 <arr+0xe009da0>
100003c4:	0f825651 	jal	1e095944 <arr+0xe095764>
100003c8:	0fac26cb 	jal	1eb09b2c <arr+0xeb0994c>
100003cc:	0fac7ca8 	jal	1eb1f2a0 <arr+0xeb1f0c0>
100003d0:	10287085 	beq	at,t0,1001c5e8 <arr+0x1c408>
100003d4:	103f75eb 	beq	at,ra,1001db84 <arr+0x1d9a4>
100003d8:	10992d48 	beq	a0,t9,1000b8fc <arr+0xb71c>
100003dc:	10a1383f 	beq	a1,at,1000e4dc <arr+0xe2fc>
100003e0:	10c15f4d 	beq	a2,at,10018118 <arr+0x17f38>
100003e4:	10cf86e4 	beq	a2,t7,ffe1f78 <entry-0x1e08c>
100003e8:	10f2f56e 	beq	a3,s2,fffd9a4 <entry-0x2660>
100003ec:	111ced15 	beq	t0,gp,fffb844 <entry-0x47c0>
100003f0:	1120e198 	beqz	t1,fff8a54 <entry-0x75b0>
100003f4:	11241391 	beq	t1,a0,1000523c <arr+0x505c>
100003f8:	112a0054 	beq	t1,t2,1000054c <arr+0x36c>
100003fc:	114ab0f5 	beq	t2,t2,ffec7d4 <entry-0x13830>
10000400:	1185b819 	beq	t4,a1,ffee468 <entry-0x11b9c>
10000404:	11ec524a 	beq	t7,t4,10014d30 <arr+0x14b50>
10000408:	11f17d43 	beq	t7,s1,1001f918 <arr+0x1f738>
1000040c:	120a0551 	beq	s0,t2,10001954 <arr+0x1774>
10000410:	12386b56 	beq	s1,t8,1001b16c <arr+0x1af8c>
10000414:	125383f5 	beq	s2,s3,ffe13ec <entry-0x1ec18>
10000418:	12cb0f82 	beq	s6,t3,10004224 <arr+0x4044>
1000041c:	12d93789 	beq	s6,t9,1000e244 <arr+0xe064>
10000420:	12e93eff 	beq	s7,t1,10010020 <arr+0xfe40>
10000424:	12f08ba4 	beq	s7,s0,ffe32b8 <entry-0x1cd4c>
10000428:	12fce6a4 	beq	s7,gp,fff9ebc <entry-0x6148>
1000042c:	13605472 	beqz	k1,100155f8 <arr+0x15418>
10000430:	13caa45d 	beq	s8,t2,ffe95a8 <entry-0x16a5c>
10000434:	13d427e3 	beq	s8,s4,1000a3c4 <arr+0xa1e4>
10000438:	141093e5 	bne	zero,s0,ffe53d0 <entry-0x1ac34>
1000043c:	14ac1763 	bne	a1,t4,100061cc <arr+0x5fec>
10000440:	14ce8583 	bne	a2,t6,ffe1a50 <entry-0x1e5b4>
10000444:	14e1b395 	bne	a3,at,ffed29c <entry-0x12d68>
10000448:	14e41929 	bne	a3,a0,100068f0 <arr+0x6710>
1000044c:	15154d70 	bne	t0,s5,10013a10 <arr+0x13830>
10000450:	157ab2d6 	bne	t3,k0,ffecfac <entry-0x13058>
10000454:	15a9991c 	bne	t5,t1,ffe68c8 <entry-0x1973c>
10000458:	164a2ac6 	bne	s2,t2,1000af74 <arr+0xad94>
1000045c:	1663bc77 	bne	s3,v1,ffef63c <entry-0x109c8>
10000460:	166efde7 	bne	s3,t6,ffffc00 <entry-0x404>
10000464:	1682c4f7 	bne	s4,v0,fff1844 <entry-0xe7c0>
10000468:	16b5de3d 	bne	s5,s5,fff7d60 <entry-0x82a4>
1000046c:	16cd5e5d 	bne	s6,t5,10017de4 <arr+0x17c04>
10000470:	16dfab18 	bne	s6,ra,ffeb0d4 <entry-0x14f30>
10000474:	16e23ca8 	bne	s7,v0,1000f718 <arr+0xf538>
10000478:	16e28b21 	bne	s7,v0,ffe3100 <entry-0x1cf04>
1000047c:	16f0be96 	bne	s7,s0,ffefed8 <entry-0x1012c>
10000480:	172f1a96 	bne	t9,t7,10006edc <arr+0x6cfc>
10000484:	1764f433 	bne	k1,a0,fffd554 <entry-0x2ab0>
10000488:	178532f3 	bne	gp,a1,1000d058 <arr+0xce78>
1000048c:	17bd8991 	bne	sp,sp,ffe2ad4 <entry-0x1d530>
10000490:	17bfc6f1 	bne	sp,ra,fff2058 <entry-0xdfac>
10000494:	188d40a6 	0x188d40a6
10000498:	18a4a723 	0x18a4a723
1000049c:	18bab8e0 	0x18bab8e0
100004a0:	191129da 	0x191129da
100004a4:	191c537e 	0x191c537e
100004a8:	193ccb37 	0x193ccb37
100004ac:	1946e902 	0x1946e902
100004b0:	195d2803 	0x195d2803
100004b4:	198ba4b9 	0x198ba4b9
100004b8:	198ccc09 	0x198ccc09
100004bc:	198d7087 	0x198d7087
100004c0:	19aa783f 	0x19aa783f
100004c4:	19caad9b 	0x19caad9b
100004c8:	1a09ad87 	0x1a09ad87
100004cc:	1a1cb008 	0x1a1cb008
100004d0:	1a482f29 	0x1a482f29
100004d4:	1a5be694 	0x1a5be694
100004d8:	1a62307b 	0x1a62307b
100004dc:	1a7ffec4 	0x1a7ffec4
100004e0:	1a998702 	0x1a998702
100004e4:	1aa45444 	0x1aa45444
100004e8:	1ab2dd62 	0x1ab2dd62
100004ec:	1ac0ef22 	blez	s6,fffc178 <entry-0x3e8c>
100004f0:	1ac117d0 	0x1ac117d0
100004f4:	1ad2c678 	0x1ad2c678
100004f8:	1adc9005 	0x1adc9005
100004fc:	1b0d63d5 	0x1b0d63d5
10000500:	1b32eba6 	0x1b32eba6
10000504:	1b5518dc 	0x1b5518dc
10000508:	1bff46ec 	0x1bff46ec
1000050c:	1c30bb5a 	0x1c30bb5a
10000510:	1c324db0 	0x1c324db0
10000514:	1c3fe95a 	0x1c3fe95a
10000518:	1c6d363b 	0x1c6d363b
1000051c:	1c6e7afa 	0x1c6e7afa
10000520:	1ca0dfc7 	bgtz	a1,fff8440 <entry-0x7bc4>
10000524:	1cd19995 	0x1cd19995
10000528:	1cda8652 	0x1cda8652
1000052c:	1ceb45f0 	0x1ceb45f0
10000530:	1cf11f9b 	0x1cf11f9b
10000534:	1cfba6c8 	0x1cfba6c8
10000538:	1d147f17 	0x1d147f17
1000053c:	1d1ac3af 	0x1d1ac3af
10000540:	1d7657f8 	0x1d7657f8
10000544:	1d7b471c 	0x1d7b471c
10000548:	1d85bc0e 	0x1d85bc0e
1000054c:	1dac5f21 	0x1dac5f21
10000550:	1db1aa0b 	0x1db1aa0b
10000554:	1de5745a 	0x1de5745a
10000558:	1de6b5ad 	0x1de6b5ad
1000055c:	1e5a0fc2 	0x1e5a0fc2
10000560:	1e8fbefc 	0x1e8fbefc
10000564:	1e9b7d37 	0x1e9b7d37
10000568:	1ebaf6e1 	0x1ebaf6e1
1000056c:	1f03436f 	0x1f03436f
10000570:	1f1344bd 	0x1f1344bd
10000574:	1f1c3c33 	0x1f1c3c33
10000578:	1f4dc197 	0x1f4dc197
1000057c:	1f7e1295 	0x1f7e1295
10000580:	1f8cc46b 	0x1f8cc46b
10000584:	1faa33f4 	0x1faa33f4
10000588:	1fadfea8 	0x1fadfea8
1000058c:	1fae4037 	0x1fae4037
10000590:	1fb82ffc 	0x1fb82ffc
10000594:	1fba16a2 	0x1fba16a2
10000598:	1fbbbfb1 	0x1fbbbfb1
1000059c:	1fbf5164 	0x1fbf5164
100005a0:	1fe4fc07 	0x1fe4fc07
100005a4:	1fef9c06 	0x1fef9c06
100005a8:	1ff770b0 	0x1ff770b0
100005ac:	20354e2e 	addi	s5,at,20014
100005b0:	205125fd 	addi	s1,v0,9725
100005b4:	205cf663 	addi	gp,v0,-2461
100005b8:	20b67213 	addi	s6,a1,29203
100005bc:	20ee218e 	addi	t6,a3,8590
100005c0:	210ae86d 	addi	t2,t0,-6035
100005c4:	210ccd28 	addi	t4,t0,-13016
100005c8:	213c98ac 	addi	gp,t1,-26452
100005cc:	215e4b9e 	addi	s8,t2,19358
100005d0:	218e3e24 	addi	t6,t4,15908
100005d4:	218eb732 	addi	t6,t4,-18638
100005d8:	21c5262b 	addi	a1,t6,9771
100005dc:	21f30e45 	addi	s3,t7,3653
100005e0:	220158e5 	addi	at,s0,22757
100005e4:	220258ae 	addi	v0,s0,22702
100005e8:	22266af8 	addi	a2,s1,27384
100005ec:	2274aad6 	addi	s4,s3,-21802
100005f0:	22cad0c0 	addi	t2,s6,-12096
100005f4:	22eed283 	addi	t6,s7,-11645
100005f8:	23039393 	addi	v1,t8,-27757
100005fc:	2317f957 	addi	s7,t8,-1705
10000600:	2325a348 	addi	a1,t9,-23736
10000604:	2329cf8d 	addi	t1,t9,-12403
10000608:	23308c89 	addi	s0,t9,-29559
1000060c:	2344c79c 	addi	a0,k0,-14436
10000610:	23534533 	addi	s3,k0,17715
10000614:	23f4e618 	addi	s4,ra,-6632
10000618:	23f7d7cf 	addi	s7,ra,-10289
1000061c:	23f8587b 	addi	t8,ra,22651
10000620:	245b833b 	addiu	k1,v0,-31941
10000624:	24674285 	addiu	a3,v1,17029
10000628:	24b46920 	addiu	s4,a1,26912
1000062c:	24f237c9 	addiu	s2,a3,14281
10000630:	250ed47f 	addiu	t6,t0,-11137
10000634:	2511e7e3 	addiu	s1,t0,-6173
10000638:	25773888 	addiu	s7,t3,14472
1000063c:	25887e15 	addiu	t0,t4,32277
10000640:	25904fb0 	addiu	s0,t4,20400
10000644:	25a48e2e 	addiu	a0,t5,-29138
10000648:	25e6b45b 	addiu	a2,t7,-19365
1000064c:	25ec67f2 	addiu	t4,t7,26610
10000650:	2600869a 	addiu	zero,s0,-31078
10000654:	2604b042 	addiu	a0,s0,-20414
10000658:	262e9d85 	addiu	t6,s1,-25211
1000065c:	2631f31d 	addiu	s1,s1,-3299
10000660:	265e1a20 	addiu	s8,s2,6688
10000664:	2667724a 	addiu	a3,s3,29258
10000668:	2667e02f 	addiu	a3,s3,-8145
1000066c:	268c2554 	addiu	t4,s4,9556
10000670:	26a43cc6 	addiu	a0,s5,15558
10000674:	26c8dc4b 	addiu	t0,s6,-9141
10000678:	26e7ebba 	addiu	a3,s7,-5190
1000067c:	2711e8b2 	addiu	s1,t8,-5966
10000680:	275577d7 	addiu	s5,k0,30679
10000684:	2762abb2 	addiu	v0,k1,-21582
10000688:	279c3699 	addiu	gp,gp,13977
1000068c:	282ac396 	slti	t2,at,-15466
10000690:	2874d659 	slti	s4,v1,-10663
10000694:	287ee714 	slti	s8,v1,-6380
10000698:	287ffcef 	slti	ra,v1,-785
1000069c:	288ca369 	slti	t4,a0,-23703
100006a0:	289a433d 	slti	k0,a0,17213
100006a4:	28e8e219 	slti	t0,a3,-7655
100006a8:	2904ccae 	slti	a0,t0,-13138
100006ac:	290577ed 	slti	a1,t0,30701
100006b0:	29185734 	slti	t8,t0,22324
100006b4:	2944333c 	slti	a0,t2,13116
100006b8:	297c267b 	slti	gp,t3,9851
100006bc:	29c94bed 	slti	t1,t6,19437
100006c0:	29e41a89 	slti	a0,t7,6793
100006c4:	2a6be2a5 	slti	t3,s3,-7515
100006c8:	2ac699df 	slti	a2,s6,-26145
100006cc:	2ae703e0 	slti	a3,s7,992
100006d0:	2af43b37 	slti	s4,s7,15159
100006d4:	2b445ac1 	slti	a0,k0,23233
100006d8:	2b7d1200 	slti	sp,k1,4608
100006dc:	2bca32a3 	slti	t2,s8,12963
100006e0:	2bcebe37 	slti	t6,s8,-16841
100006e4:	2bf2c3ac 	slti	s2,ra,-15444
100006e8:	2c207de8 	sltiu	zero,at,32232
100006ec:	2c7245fa 	sltiu	s2,v1,17914
100006f0:	2ca3d8d8 	sltiu	v1,a1,-10024
100006f4:	2ca75fe6 	sltiu	a3,a1,24550
100006f8:	2cb473f5 	sltiu	s4,a1,29685
100006fc:	2cc9f4fe 	sltiu	t1,a2,-2818
10000700:	2cd11e98 	sltiu	s1,a2,7832
10000704:	2cde5b59 	sltiu	s8,a2,23385
10000708:	2ce2e441 	sltiu	v0,a3,-7103
1000070c:	2ce54eb9 	sltiu	a1,a3,20153
10000710:	2cfdf199 	sltiu	sp,a3,-3687
10000714:	2d348532 	sltiu	s4,t1,-31438
10000718:	2d79f4a0 	sltiu	t9,t3,-2912
1000071c:	2d9459c4 	sltiu	s4,t4,22980
10000720:	2d9b5b92 	sltiu	k1,t4,23442
10000724:	2d9c9d8d 	sltiu	gp,t4,-25203
10000728:	2d9f2d6d 	sltiu	ra,t4,11629
1000072c:	2daf9f91 	sltiu	t7,t5,-24687
10000730:	2ddac776 	sltiu	k0,t6,-14474
10000734:	2df26842 	sltiu	s2,t7,26690
10000738:	2e70722b 	sltiu	s0,s3,29227
1000073c:	2e919f12 	sltiu	s1,s4,-24814
10000740:	2f1303bd 	sltiu	s3,t8,957
10000744:	2f160137 	sltiu	s6,t8,311
10000748:	2f397ea6 	sltiu	t9,t9,32422
1000074c:	2f3cfaaa 	sltiu	gp,t9,-1366
10000750:	2f67e364 	sltiu	a3,k1,-7324
10000754:	2f6fc786 	sltiu	t7,k1,-14458
10000758:	2f83be6d 	sltiu	v1,gp,-16787
1000075c:	2f9f9fd3 	sltiu	ra,gp,-24621
10000760:	2fae3ab5 	sltiu	t6,sp,15029
10000764:	2fed9203 	sltiu	t5,ra,-28157
10000768:	2fff1687 	sltiu	ra,ra,5767
1000076c:	301e4056 	andi	s8,zero,0x4056
10000770:	30322bd3 	andi	s2,at,0x2bd3
10000774:	30340905 	andi	s4,at,0x905
10000778:	305d820c 	andi	sp,v0,0x820c
1000077c:	30640b44 	andi	a0,v1,0xb44
10000780:	30977500 	andi	s7,a0,0x7500
10000784:	30a2f802 	andi	v0,a1,0xf802
10000788:	30b916b6 	andi	t9,a1,0x16b6
1000078c:	30d86a7a 	andi	t8,a2,0x6a7a
10000790:	312d3cfd 	andi	t5,t1,0x3cfd
10000794:	31715fba 	andi	s1,t3,0x5fba
10000798:	318b90c8 	andi	t3,t4,0x90c8
1000079c:	31b45fb9 	andi	s4,t5,0x5fb9
100007a0:	31d05433 	andi	s0,t6,0x5433
100007a4:	31d38659 	andi	s3,t6,0x8659
100007a8:	320f9802 	andi	t7,s0,0x9802
100007ac:	3213d189 	andi	s3,s0,0xd189
100007b0:	322fb62f 	andi	t7,s1,0xb62f
100007b4:	325c4c1a 	andi	gp,s2,0x4c1a
100007b8:	326f6ccd 	andi	t7,s3,0x6ccd
100007bc:	32738b75 	andi	s3,s3,0x8b75
100007c0:	3279e528 	andi	t9,s3,0xe528
100007c4:	32a43e0e 	andi	a0,s5,0x3e0e
100007c8:	32a749f9 	andi	a3,s5,0x49f9
100007cc:	32bf1b46 	andi	ra,s5,0x1b46
100007d0:	32f07bed 	andi	s0,s7,0x7bed
100007d4:	32f25c15 	andi	s2,s7,0x5c15
100007d8:	33374110 	andi	s7,t9,0x4110
100007dc:	333a1fd2 	andi	k0,t9,0x1fd2
100007e0:	335ecb45 	andi	s8,k0,0xcb45
100007e4:	336e0464 	andi	t6,k1,0x464
100007e8:	339ed74e 	andi	s8,gp,0xd74e
100007ec:	339ff573 	andi	ra,gp,0xf573
100007f0:	33cd16d4 	andi	t5,s8,0x16d4
100007f4:	33e09c32 	andi	zero,ra,0x9c32
100007f8:	33eac37b 	andi	t2,ra,0xc37b
100007fc:	33f14405 	andi	s1,ra,0x4405
10000800:	34025069 	li	v0,0x5069
10000804:	34075c80 	li	a3,0x5c80
10000808:	342207ac 	ori	v0,at,0x7ac
1000080c:	34703b6d 	ori	s0,v1,0x3b6d
10000810:	34b45b0b 	ori	s4,a1,0x5b0b
10000814:	34cec557 	ori	t6,a2,0xc557
10000818:	34d18830 	ori	s1,a2,0x8830
1000081c:	34dc56d2 	ori	gp,a2,0x56d2
10000820:	3518e5f0 	ori	t8,t0,0xe5f0
10000824:	351e7d96 	ori	s8,t0,0x7d96
10000828:	3532fc54 	ori	s2,t1,0xfc54
1000082c:	356ceb61 	ori	t4,t3,0xeb61
10000830:	359d4c12 	ori	sp,t4,0x4c12
10000834:	35bb7adf 	ori	k1,t5,0x7adf
10000838:	35cee3d4 	ori	t6,t6,0xe3d4
1000083c:	35d6d430 	ori	s6,t6,0xd430
10000840:	35ed7c53 	ori	t5,t7,0x7c53
10000844:	3604358e 	ori	a0,s0,0x358e
10000848:	360a6dda 	ori	t2,s0,0x6dda
1000084c:	363c5111 	ori	gp,s1,0x5111
10000850:	369ccf5d 	ori	gp,s4,0xcf5d
10000854:	36cb5605 	ori	t3,s6,0x5605
10000858:	36d4c581 	ori	s4,s6,0xc581
1000085c:	36d56550 	ori	s5,s6,0x6550
10000860:	36dd0b0e 	ori	sp,s6,0xb0e
10000864:	36eb24e4 	ori	t3,s7,0x24e4
10000868:	36f734f6 	ori	s7,s7,0x34f6
1000086c:	372cd6cb 	ori	t4,t9,0xd6cb
10000870:	377c8035 	ori	gp,k1,0x8035
10000874:	377fcc0f 	ori	ra,k1,0xcc0f
10000878:	37f716be 	ori	s7,ra,0x16be
1000087c:	37f73198 	ori	s7,ra,0x3198
10000880:	3816098c 	xori	s6,zero,0x98c
10000884:	38461f86 	xori	a2,v0,0x1f86
10000888:	38765557 	xori	s6,v1,0x5557
1000088c:	3898ddc0 	xori	t8,a0,0xddc0
10000890:	38cd32cc 	xori	t5,a2,0x32cc
10000894:	38ef5a2c 	xori	t7,a3,0x5a2c
10000898:	390a9959 	xori	t2,t0,0x9959
1000089c:	391b376c 	xori	k1,t0,0x376c
100008a0:	392eec77 	xori	t6,t1,0xec77
100008a4:	395e9010 	xori	s8,t2,0x9010
100008a8:	396ef4cd 	xori	t6,t3,0xf4cd
100008ac:	39739f5c 	xori	s3,t3,0x9f5c
100008b0:	397ac7f2 	xori	k0,t3,0xc7f2
100008b4:	398ff296 	xori	t7,t4,0xf296
100008b8:	39a2e6ea 	xori	v0,t5,0xe6ea
100008bc:	39c44a5f 	xori	a0,t6,0x4a5f
100008c0:	39f5c3b7 	xori	s5,t7,0xc3b7
100008c4:	3a076a70 	xori	a3,s0,0x6a70
100008c8:	3a40d801 	xori	zero,s2,0xd801
100008cc:	3a443136 	xori	a0,s2,0x3136
100008d0:	3a7bc5af 	xori	k1,s3,0xc5af
100008d4:	3a8f31a6 	xori	t7,s4,0x31a6
100008d8:	3ab24b07 	xori	s2,s5,0x4b07
100008dc:	3ace97ef 	xori	t6,s6,0x97ef
100008e0:	3af05025 	xori	s0,s7,0x5025
100008e4:	3af7f776 	xori	s7,s7,0xf776
100008e8:	3b226d6d 	xori	v0,t9,0x6d6d
100008ec:	3b398a68 	xori	t9,t9,0x8a68
100008f0:	3b6524d6 	xori	a1,k1,0x24d6
100008f4:	3b80f74a 	xori	zero,gp,0xf74a
100008f8:	3b8ed4b1 	xori	t6,gp,0xd4b1
100008fc:	3bdbfa49 	xori	k1,s8,0xfa49
10000900:	3be6db86 	xori	a2,ra,0xdb86
10000904:	3bf00061 	xori	s0,ra,0x61
10000908:	3c46bf75 	0x3c46bf75
1000090c:	3c5f7f85 	0x3c5f7f85
10000910:	3c62a0b0 	0x3c62a0b0
10000914:	3c744018 	0x3c744018
10000918:	3c7a8848 	0x3c7a8848
1000091c:	3c93ba44 	0x3c93ba44
10000920:	3c9648cc 	0x3c9648cc
10000924:	3ca01db1 	0x3ca01db1
10000928:	3d134e1f 	0x3d134e1f
1000092c:	3d30e65f 	0x3d30e65f
10000930:	3d483519 	0x3d483519
10000934:	3d552df6 	0x3d552df6
10000938:	3d8e5104 	0x3d8e5104
1000093c:	3dd5651d 	0x3dd5651d
10000940:	3dfa34d9 	0x3dfa34d9
10000944:	3e020beb 	0x3e020beb
10000948:	3e064723 	0x3e064723
1000094c:	3e43364c 	0x3e43364c
10000950:	3e7581f9 	0x3e7581f9
10000954:	3e88d7b5 	0x3e88d7b5
10000958:	3eaa5432 	0x3eaa5432
1000095c:	3ecdfe2e 	0x3ecdfe2e
10000960:	3ed4edac 	0x3ed4edac
10000964:	3f3fc73a 	0x3f3fc73a
10000968:	3f503143 	0x3f503143
1000096c:	3f5ebc9c 	0x3f5ebc9c
10000970:	3f88bc82 	0x3f88bc82
10000974:	3fdc1267 	0x3fdc1267
10000978:	3fe89550 	0x3fe89550
1000097c:	3feb71d1 	0x3feb71d1
10000980:	4003900d 	0x4003900d
10000984:	4036b913 	0x4036b913
10000988:	40431e61 	0x40431e61
1000098c:	4059bc71 	0x4059bc71
10000990:	405f5a4b 	0x405f5a4b
10000994:	40650526 	0x40650526
10000998:	409825a2 	0x409825a2
1000099c:	40a78a33 	0x40a78a33
100009a0:	40d25b7b 	0x40d25b7b
100009a4:	40f868d4 	0x40f868d4
100009a8:	411af86e 	0x411af86e
100009ac:	4135e5de 	0x4135e5de
100009b0:	415b5c32 	0x415b5c32
100009b4:	419693a8 	0x419693a8
100009b8:	41ca24a5 	0x41ca24a5
100009bc:	41e3aef2 	0x41e3aef2
100009c0:	41ec70cd 	0x41ec70cd
100009c4:	41ed2bd7 	0x41ed2bd7
100009c8:	4241cf8d 	c0	0x41cf8d
100009cc:	42476295 	c0	0x476295
100009d0:	42520935 	c0	0x520935
100009d4:	42e679d2 	c0	0xe679d2
100009d8:	4329e8d1 	c0	0x129e8d1
100009dc:	4372d289 	c0	0x172d289
100009e0:	43a0c948 	c0	0x1a0c948
100009e4:	43aa3796 	c0	0x1aa3796
100009e8:	43c5e275 	c0	0x1c5e275
100009ec:	43c6c24a 	c0	0x1c6c24a
100009f0:	4411aee6 	0x4411aee6
100009f4:	441bc0aa 	0x441bc0aa
100009f8:	4448ee9e 	0x4448ee9e
100009fc:	44606b6f 	0x44606b6f
10000a00:	448eed15 	0x448eed15
10000a04:	44ad6337 	0x44ad6337
10000a08:	44b1cd95 	0x44b1cd95
10000a0c:	45530c35 	0x45530c35
10000a10:	45dd2a8c 	0x45dd2a8c
10000a14:	462c7130 	c1	0x2c7130
10000a18:	464e8a3a 	c1	0x4e8a3a
10000a1c:	465d15b8 	c1	0x5d15b8
10000a20:	4669c510 	c1	0x69c510
10000a24:	468cbd46 	c1	0x8cbd46
10000a28:	46942f59 	c1	0x942f59
10000a2c:	46b670b4 	c1	0xb670b4
10000a30:	46e09eba 	c1	0xe09eba
10000a34:	46ece657 	c1	0xece657
10000a38:	4702eb59 	c1	0x102eb59
10000a3c:	471a0e0a 	c1	0x11a0e0a
10000a40:	475f3356 	c1	0x15f3356
10000a44:	47613358 	c1	0x1613358
10000a48:	47848e91 	c1	0x1848e91
10000a4c:	47888072 	c1	0x1888072
10000a50:	47a9d61d 	c1	0x1a9d61d
10000a54:	47ba603a 	c1	0x1ba603a
10000a58:	47d3dedd 	c1	0x1d3dedd
10000a5c:	47dd446c 	c1	0x1dd446c
10000a60:	47e5c3eb 	c1	0x1e5c3eb
10000a64:	485d77e0 	0x485d77e0
10000a68:	48601e31 	0x48601e31
10000a6c:	486830ce 	0x486830ce
10000a70:	48d50075 	0x48d50075
10000a74:	48e55616 	0x48e55616
10000a78:	4902cb9c 	0x4902cb9c
10000a7c:	4906d6d8 	0x4906d6d8
10000a80:	491d93fe 	0x491d93fe
10000a84:	49217cea 	0x49217cea
10000a88:	49724d8c 	0x49724d8c
10000a8c:	498bc5ac 	0x498bc5ac
10000a90:	4993f6b9 	0x4993f6b9
10000a94:	4994c766 	0x4994c766
10000a98:	49d87ac0 	0x49d87ac0
10000a9c:	49f5c611 	0x49f5c611
10000aa0:	49fe743a 	0x49fe743a
10000aa4:	4a209e09 	c2	0x209e09
10000aa8:	4a787608 	c2	0x787608
10000aac:	4ac776e5 	c2	0xc776e5
10000ab0:	4b17d3b5 	c2	0x117d3b5
10000ab4:	4b34b9d7 	c2	0x134b9d7
10000ab8:	4b834b55 	c2	0x1834b55
10000abc:	4b8fa29a 	c2	0x18fa29a
10000ac0:	4bbbf73e 	c2	0x1bbf73e
10000ac4:	4bf1a5bc 	c2	0x1f1a5bc
10000ac8:	4c00fbc5 	0x4c00fbc5
10000acc:	4c0b64a8 	0x4c0b64a8
10000ad0:	4c0c64ad 	0x4c0c64ad
10000ad4:	4c2a8927 	0x4c2a8927
10000ad8:	4c5406af 	0x4c5406af
10000adc:	4c61d388 	0x4c61d388
10000ae0:	4c796e1a 	0x4c796e1a
10000ae4:	4c87f550 	0x4c87f550
10000ae8:	4ca1a8db 	0x4ca1a8db
10000aec:	4cce96f1 	0x4cce96f1
10000af0:	4cd3ed53 	0x4cd3ed53
10000af4:	4cee3142 	0x4cee3142
10000af8:	4d0daaa0 	0x4d0daaa0
10000afc:	4d20a98e 	0x4d20a98e
10000b00:	4d75239d 	0x4d75239d
10000b04:	4d7f5122 	0x4d7f5122
10000b08:	4d7fc8eb 	0x4d7fc8eb
10000b0c:	4db95135 	0x4db95135
10000b10:	4dbde347 	0x4dbde347
10000b14:	4dcab88a 	0x4dcab88a
10000b18:	4dcc9240 	0x4dcc9240
10000b1c:	4dfda361 	0x4dfda361
10000b20:	4e522565 	c3	0x522565
10000b24:	4e683cdf 	c3	0x683cdf
10000b28:	4e70c4fb 	c3	0x70c4fb
10000b2c:	4ebf985e 	c3	0xbf985e
10000b30:	4ec9979e 	c3	0xc9979e
10000b34:	4f399701 	c3	0x1399701
10000b38:	4f4528b0 	c3	0x14528b0
10000b3c:	4f4aec35 	c3	0x14aec35
10000b40:	4f4b0222 	c3	0x14b0222
10000b44:	4f60db96 	c3	0x160db96
10000b48:	4f699032 	c3	0x1699032
10000b4c:	4f9626ae 	c3	0x19626ae
10000b50:	4fc05111 	c3	0x1c05111
10000b54:	4fe171ec 	c3	0x1e171ec
10000b58:	4ff736dc 	c3	0x1f736dc
10000b5c:	4ffa2ad9 	c3	0x1fa2ad9
10000b60:	500ee8dc 	0x500ee8dc
10000b64:	5047fbf7 	0x5047fbf7
10000b68:	505f66fe 	0x505f66fe
10000b6c:	5088826c 	0x5088826c
10000b70:	50c4ac2d 	0x50c4ac2d
10000b74:	50d47360 	0x50d47360
10000b78:	50dd7e61 	0x50dd7e61
10000b7c:	5104aa94 	0x5104aa94
10000b80:	5115865d 	0x5115865d
10000b84:	5124593a 	0x5124593a
10000b88:	5135d220 	0x5135d220
10000b8c:	516de46c 	0x516de46c
10000b90:	516fc618 	0x516fc618
10000b94:	5175b7f7 	0x5175b7f7
10000b98:	518168f7 	0x518168f7
10000b9c:	518187a2 	0x518187a2
10000ba0:	51db303d 	0x51db303d
10000ba4:	51efc9e6 	0x51efc9e6
10000ba8:	51f8544b 	0x51f8544b
10000bac:	5224041e 	0x5224041e
10000bb0:	524276de 	0x524276de
10000bb4:	527a9982 	0x527a9982
10000bb8:	5287e6a1 	0x5287e6a1
10000bbc:	528dc993 	0x528dc993
10000bc0:	52a66331 	0x52a66331
10000bc4:	52cc3be3 	0x52cc3be3
10000bc8:	5301d953 	0x5301d953
10000bcc:	5309c321 	0x5309c321
10000bd0:	5312bb16 	0x5312bb16
10000bd4:	5321f501 	0x5321f501
10000bd8:	534ebe8a 	0x534ebe8a
10000bdc:	53755391 	0x53755391
10000be0:	53780859 	0x53780859
10000be4:	538215d1 	0x538215d1
10000be8:	53b50d41 	0x53b50d41
10000bec:	53c48b03 	0x53c48b03
10000bf0:	53f0b377 	0x53f0b377
10000bf4:	53f3fb77 	0x53f3fb77
10000bf8:	53fb1fff 	0x53fb1fff
10000bfc:	5448e860 	0x5448e860
10000c00:	5462a2a8 	0x5462a2a8
10000c04:	54898ab6 	0x54898ab6
10000c08:	549e1a26 	0x549e1a26
10000c0c:	54b0d47c 	0x54b0d47c
10000c10:	54b7d93f 	0x54b7d93f
10000c14:	54beaf3a 	0x54beaf3a
10000c18:	5504c9b2 	0x5504c9b2
10000c1c:	550cefa4 	0x550cefa4
10000c20:	5517e2d6 	0x5517e2d6
10000c24:	5581337e 	0x5581337e
10000c28:	558d6ab5 	0x558d6ab5
10000c2c:	559a9b0f 	0x559a9b0f
10000c30:	55d19462 	0x55d19462
10000c34:	55ee4c7b 	0x55ee4c7b
10000c38:	5604e1a5 	0x5604e1a5
10000c3c:	560dc7c6 	0x560dc7c6
10000c40:	561005dd 	0x561005dd
10000c44:	561eccca 	0x561eccca
10000c48:	565f00e2 	0x565f00e2
10000c4c:	567e5663 	0x567e5663
10000c50:	568b708d 	0x568b708d
10000c54:	5699704d 	0x5699704d
10000c58:	56b84500 	0x56b84500
10000c5c:	56bbe42d 	0x56bbe42d
10000c60:	56d7b8e9 	0x56d7b8e9
10000c64:	570fa8fb 	0x570fa8fb
10000c68:	57896b6b 	0x57896b6b
10000c6c:	578fbcba 	0x578fbcba
10000c70:	57d63daa 	0x57d63daa
10000c74:	57db6ca9 	0x57db6ca9
10000c78:	57dc5883 	0x57dc5883
10000c7c:	57faeb30 	0x57faeb30
10000c80:	581939c5 	0x581939c5
10000c84:	5828aeb8 	0x5828aeb8
10000c88:	5828fe40 	0x5828fe40
10000c8c:	583e7db8 	0x583e7db8
10000c90:	584a9018 	0x584a9018
10000c94:	585f90b4 	0x585f90b4
10000c98:	588798aa 	0x588798aa
10000c9c:	58a1e4d5 	0x58a1e4d5
10000ca0:	58b72658 	0x58b72658
10000ca4:	58c86d68 	0x58c86d68
10000ca8:	58cbbd93 	0x58cbbd93
10000cac:	58e144fc 	0x58e144fc
10000cb0:	58fb6a14 	0x58fb6a14
10000cb4:	59747b1e 	0x59747b1e
10000cb8:	597d356f 	0x597d356f
10000cbc:	59846b30 	0x59846b30
10000cc0:	59915167 	0x59915167
10000cc4:	5992b43f 	0x5992b43f
10000cc8:	59c917af 	0x59c917af
10000ccc:	5a40c44a 	0x5a40c44a
10000cd0:	5a5bec24 	0x5a5bec24
10000cd4:	5a97d003 	0x5a97d003
10000cd8:	5ad2d91e 	0x5ad2d91e
10000cdc:	5b1335ea 	0x5b1335ea
10000ce0:	5b1941b0 	0x5b1941b0
10000ce4:	5b208bc3 	0x5b208bc3
10000ce8:	5b2e49cf 	0x5b2e49cf
10000cec:	5b3a4abf 	0x5b3a4abf
10000cf0:	5b596608 	0x5b596608
10000cf4:	5b6332d1 	0x5b6332d1
10000cf8:	5b66c133 	0x5b66c133
10000cfc:	5b66c787 	0x5b66c787
10000d00:	5b6d4bfe 	0x5b6d4bfe
10000d04:	5b740a4d 	0x5b740a4d
10000d08:	5bb8b9fb 	0x5bb8b9fb
10000d0c:	5bbe7034 	0x5bbe7034
10000d10:	5be5ad52 	0x5be5ad52
10000d14:	5beade66 	0x5beade66
10000d18:	5c266449 	0x5c266449
10000d1c:	5c3cebac 	0x5c3cebac
10000d20:	5c3fa82d 	0x5c3fa82d
10000d24:	5ccab401 	0x5ccab401
10000d28:	5cd3412e 	0x5cd3412e
10000d2c:	5cdc7f5f 	0x5cdc7f5f
10000d30:	5ce396ca 	0x5ce396ca
10000d34:	5ceef295 	0x5ceef295
10000d38:	5cf7cd09 	0x5cf7cd09
10000d3c:	5cf7de8c 	0x5cf7de8c
10000d40:	5d0448bb 	0x5d0448bb
10000d44:	5d17049f 	0x5d17049f
10000d48:	5d1d8c22 	0x5d1d8c22
10000d4c:	5d2ee13a 	0x5d2ee13a
10000d50:	5d803d0b 	0x5d803d0b
10000d54:	5ddda9e4 	0x5ddda9e4
10000d58:	5de0b7e2 	0x5de0b7e2
10000d5c:	5dee758e 	0x5dee758e
10000d60:	5dfd84e8 	0x5dfd84e8
10000d64:	5e14d60e 	0x5e14d60e
10000d68:	5e7602ca 	0x5e7602ca
10000d6c:	5eaeb0aa 	0x5eaeb0aa
10000d70:	5ef7fd20 	0x5ef7fd20
10000d74:	5f22a0b9 	0x5f22a0b9
10000d78:	5f35e55f 	0x5f35e55f
10000d7c:	5f53ca75 	0x5f53ca75
10000d80:	5f5f16c9 	0x5f5f16c9
10000d84:	5f604bb7 	0x5f604bb7
10000d88:	5f7bbff3 	0x5f7bbff3
10000d8c:	5fadb07e 	0x5fadb07e
10000d90:	5fbee485 	0x5fbee485
10000d94:	5fc2ae65 	0x5fc2ae65
10000d98:	5fd107ad 	0x5fd107ad
10000d9c:	5fe2488c 	0x5fe2488c
10000da0:	5fea86e9 	0x5fea86e9
10000da4:	604c0ae6 	0x604c0ae6
10000da8:	608b0b32 	0x608b0b32
10000dac:	60981d70 	0x60981d70
10000db0:	6148a0ec 	0x6148a0ec
10000db4:	615c9a6a 	0x615c9a6a
10000db8:	61662308 	0x61662308
10000dbc:	617bc6cd 	0x617bc6cd
10000dc0:	61dd166a 	0x61dd166a
10000dc4:	61e282cb 	0x61e282cb
10000dc8:	61e8db7f 	0x61e8db7f
10000dcc:	61ec7eae 	0x61ec7eae
10000dd0:	6286033c 	0x6286033c
10000dd4:	6299dd6f 	0x6299dd6f
10000dd8:	62b27c79 	0x62b27c79
10000ddc:	632aa44b 	0x632aa44b
10000de0:	634a3a90 	0x634a3a90
10000de4:	639ce04e 	0x639ce04e
10000de8:	639eea63 	0x639eea63
10000dec:	63e1de66 	0x63e1de66
10000df0:	63fd429a 	0x63fd429a
10000df4:	640790df 	0x640790df
10000df8:	64239cd4 	0x64239cd4
10000dfc:	644d6fc3 	0x644d6fc3
10000e00:	64635b25 	0x64635b25
10000e04:	647b7065 	0x647b7065
10000e08:	64b66952 	0x64b66952
10000e0c:	64bc1b21 	0x64bc1b21
10000e10:	65043fad 	0x65043fad
10000e14:	652c5990 	0x652c5990
10000e18:	652ff577 	0x652ff577
10000e1c:	653076e9 	0x653076e9
10000e20:	6543555e 	0x6543555e
10000e24:	655f1a72 	0x655f1a72
10000e28:	656a4c07 	0x656a4c07
10000e2c:	65a74f26 	0x65a74f26
10000e30:	65aecb60 	0x65aecb60
10000e34:	65f7a6bc 	0x65f7a6bc
10000e38:	661ab42a 	0x661ab42a
10000e3c:	66304037 	0x66304037
10000e40:	665a0696 	0x665a0696
10000e44:	6663b9d1 	0x6663b9d1
10000e48:	6665c99e 	0x6665c99e
10000e4c:	66794607 	0x66794607
10000e50:	667dab7e 	0x667dab7e
10000e54:	66f1a58e 	0x66f1a58e
10000e58:	67001e96 	0x67001e96
10000e5c:	676b5902 	0x676b5902
10000e60:	6787a4fd 	0x6787a4fd
10000e64:	678cdd33 	0x678cdd33
10000e68:	679dba25 	0x679dba25
10000e6c:	67b32589 	0x67b32589
10000e70:	67bac720 	0x67bac720
10000e74:	68043e04 	0x68043e04
10000e78:	6833f6cb 	0x6833f6cb
10000e7c:	683a190d 	0x683a190d
10000e80:	686205fc 	0x686205fc
10000e84:	688f56a4 	0x688f56a4
10000e88:	68accb1b 	0x68accb1b
10000e8c:	68e0e25c 	0x68e0e25c
10000e90:	69036485 	0x69036485
10000e94:	690993a3 	0x690993a3
10000e98:	692c610b 	0x692c610b
10000e9c:	693176e3 	0x693176e3
10000ea0:	695d5371 	0x695d5371
10000ea4:	69668b4d 	0x69668b4d
10000ea8:	69898559 	0x69898559
10000eac:	69bd0bab 	0x69bd0bab
10000eb0:	69ea1721 	0x69ea1721
10000eb4:	6a176106 	0x6a176106
10000eb8:	6a28f409 	0x6a28f409
10000ebc:	6a66d870 	0x6a66d870
10000ec0:	6ac43871 	0x6ac43871
10000ec4:	6af6018c 	0x6af6018c
10000ec8:	6b03fc85 	0x6b03fc85
10000ecc:	6b2be3e4 	0x6b2be3e4
10000ed0:	6b366e05 	0x6b366e05
10000ed4:	6b36754c 	0x6b36754c
10000ed8:	6b6c04e8 	0x6b6c04e8
10000edc:	6b98c849 	0x6b98c849
10000ee0:	6ba31281 	0x6ba31281
10000ee4:	6ba5d57a 	0x6ba5d57a
10000ee8:	6bbf4901 	0x6bbf4901
10000eec:	6bc58ad1 	0x6bc58ad1
10000ef0:	6be03819 	0x6be03819
10000ef4:	6be8100e 	0x6be8100e
10000ef8:	6bf58c3b 	0x6bf58c3b
10000efc:	6c3b87cc 	0x6c3b87cc
10000f00:	6c4b1b03 	0x6c4b1b03
10000f04:	6c9685b9 	0x6c9685b9
10000f08:	6c9ada66 	0x6c9ada66
10000f0c:	6cef6ccc 	0x6cef6ccc
10000f10:	6d4b4f1f 	0x6d4b4f1f
10000f14:	6d7066c5 	0x6d7066c5
10000f18:	6d829964 	0x6d829964
10000f1c:	6d9634f4 	0x6d9634f4
10000f20:	6db181d1 	0x6db181d1
10000f24:	6db4aaca 	0x6db4aaca
10000f28:	6db6997a 	0x6db6997a
10000f2c:	6dc45b80 	0x6dc45b80
10000f30:	6ddd7972 	0x6ddd7972
10000f34:	6de0a026 	0x6de0a026
10000f38:	6e0ceed8 	0x6e0ceed8
10000f3c:	6e1d23c8 	0x6e1d23c8
10000f40:	6e39e882 	0x6e39e882
10000f44:	6e39ea92 	0x6e39ea92
10000f48:	6e42faf5 	0x6e42faf5
10000f4c:	6e5091d0 	0x6e5091d0
10000f50:	6e6060f5 	0x6e6060f5
10000f54:	6e9ceaaf 	0x6e9ceaaf
10000f58:	6edefc9c 	0x6edefc9c
10000f5c:	6efecb14 	0x6efecb14
10000f60:	6f41becf 	0x6f41becf
10000f64:	6f691a72 	0x6f691a72
10000f68:	6f765732 	0x6f765732
10000f6c:	6f9c171e 	0x6f9c171e
10000f70:	6fc9ef9a 	0x6fc9ef9a
10000f74:	704c2472 	0x704c2472
10000f78:	7062c7d4 	0x7062c7d4
10000f7c:	707f618c 	0x707f618c
10000f80:	708f39d0 	0x708f39d0
10000f84:	70b4550e 	0x70b4550e
10000f88:	70f62546 	0x70f62546
10000f8c:	70ffe1d7 	0x70ffe1d7
10000f90:	7104c392 	0x7104c392
10000f94:	7121ec86 	0x7121ec86
10000f98:	7125630d 	0x7125630d
10000f9c:	713dc65b 	0x713dc65b
10000fa0:	718d6792 	0x718d6792
10000fa4:	71a8cb92 	0x71a8cb92
10000fa8:	71af7416 	0x71af7416
10000fac:	71cc73d7 	0x71cc73d7
10000fb0:	71d693ec 	0x71d693ec
10000fb4:	71ea6e57 	0x71ea6e57
10000fb8:	7202fa0f 	0x7202fa0f
10000fbc:	72a8f9fe 	0x72a8f9fe
10000fc0:	72b480f1 	0x72b480f1
10000fc4:	72b5a032 	0x72b5a032
10000fc8:	731b14de 	0x731b14de
10000fcc:	731c4f81 	0x731c4f81
10000fd0:	732ab775 	0x732ab775
10000fd4:	73bde9fb 	0x73bde9fb
10000fd8:	73dab5c1 	0x73dab5c1
10000fdc:	73f17be9 	0x73f17be9
10000fe0:	741ab9f6 	jalx	106ae7d8 <arr+0x6ae5f8>
10000fe4:	7467be4f 	jalx	119ef93c <arr+0x19ef75c>
10000fe8:	74b9a56c 	jalx	12e695b0 <arr+0x2e693d0>
10000fec:	74cf0bc8 	jalx	133c2f20 <arr+0x33c2d40>
10000ff0:	74e725fe 	jalx	139c97f8 <arr+0x39c9618>
10000ff4:	74ecfbda 	jalx	13b3ef68 <arr+0x3b3ed88>
10000ff8:	74ed409e 	jalx	13b50278 <arr+0x3b50098>
10000ffc:	753d763a 	jalx	14f5d8e8 <arr+0x4f5d708>
10001000:	754338ba 	jalx	150ce2e8 <arr+0x50ce108>
10001004:	75797520 	jalx	15e5d480 <arr+0x5e5d2a0>
10001008:	757b2624 	jalx	15ec9890 <arr+0x5ec96b0>
1000100c:	75adae64 	jalx	16b6b990 <arr+0x6b6b7b0>
10001010:	75d72b69 	jalx	175cada4 <arr+0x75cabc4>
10001014:	75d98ac0 	jalx	17662b00 <arr+0x7662920>
10001018:	75edff69 	jalx	17b7fda4 <arr+0x7b7fbc4>
1000101c:	7610d8bf 	jalx	184362fc <arr+0x843611c>
10001020:	762c8a15 	jalx	18b22854 <arr+0x8b22674>
10001024:	763945ad 	jalx	18e516b4 <arr+0x8e514d4>
10001028:	76640bc2 	jalx	19902f08 <arr+0x9902d28>
1000102c:	76719489 	jalx	19c65224 <arr+0x9c65044>
10001030:	768bf19c 	jalx	1a2fc670 <arr+0xa2fc490>
10001034:	76970626 	jalx	1a5c1898 <arr+0xa5c16b8>
10001038:	76cab943 	jalx	1b2ae50c <arr+0xb2ae32c>
1000103c:	76d41168 	jalx	1b5045a0 <arr+0xb5043c0>
10001040:	76f19d00 	jalx	1bc67400 <arr+0xbc67220>
10001044:	77161687 	jalx	1c585a1c <arr+0xc58583c>
10001048:	771abaff 	jalx	1c6aebfc <arr+0xc6aea1c>
1000104c:	771e6253 	jalx	1c79894c <arr+0xc79876c>
10001050:	776343c5 	jalx	1d8d0f14 <arr+0xd8d0d34>
10001054:	77708d1b 	jalx	1dc2346c <arr+0xdc2328c>
10001058:	7791d11d 	jalx	1e474474 <arr+0xe474294>
1000105c:	77a580cd 	jalx	1e960334 <arr+0xe960154>
10001060:	781d79ef 	0x781d79ef
10001064:	781de243 	0x781de243
10001068:	78217e61 	0x78217e61
1000106c:	7828bac6 	0x7828bac6
10001070:	7830399c 	0x7830399c
10001074:	78331601 	0x78331601
10001078:	78779c51 	0x78779c51
1000107c:	7895524c 	0x7895524c
10001080:	789e4df6 	0x789e4df6
10001084:	7918bd91 	0x7918bd91
10001088:	792fd7d3 	0x792fd7d3
1000108c:	79389605 	0x79389605
10001090:	795f1eee 	0x795f1eee
10001094:	79772645 	0x79772645
10001098:	797e1b3c 	0x797e1b3c
1000109c:	797edd57 	0x797edd57
100010a0:	798e9de3 	0x798e9de3
100010a4:	79a82175 	0x79a82175
100010a8:	79aaa59f 	0x79aaa59f
100010ac:	79e1a369 	0x79e1a369
100010b0:	79fa49a6 	0x79fa49a6
100010b4:	7a0525a5 	0x7a0525a5
100010b8:	7a05e8a5 	0x7a05e8a5
100010bc:	7a104053 	0x7a104053
100010c0:	7a221f67 	0x7a221f67
100010c4:	7a2e7f1b 	0x7a2e7f1b
100010c8:	7a9a6678 	0x7a9a6678
100010cc:	7ab9f824 	0x7ab9f824
100010d0:	7acebbd2 	0x7acebbd2
100010d4:	7adafccc 	0x7adafccc
100010d8:	7aeeb14c 	0x7aeeb14c
100010dc:	7b12d1dc 	0x7b12d1dc
100010e0:	7b2af1da 	0x7b2af1da
100010e4:	7b2c165a 	0x7b2c165a
100010e8:	7b920496 	0x7b920496
100010ec:	7baafd84 	0x7baafd84
100010f0:	7bb0ad03 	0x7bb0ad03
100010f4:	7bc5e300 	0x7bc5e300
100010f8:	7bcb1ddd 	0x7bcb1ddd
100010fc:	7bf7becf 	0x7bf7becf
10001100:	7c0c1e40 	0x7c0c1e40
10001104:	7c74c7ab 	0x7c74c7ab
10001108:	7c96a820 	0x7c96a820
1000110c:	7cbfcd0c 	0x7cbfcd0c
10001110:	7ccba816 	0x7ccba816
10001114:	7cdfdde1 	0x7cdfdde1
10001118:	7cfc0272 	0x7cfc0272
1000111c:	7d1b8a87 	0x7d1b8a87
10001120:	7d4f8138 	0x7d4f8138
10001124:	7d52a715 	0x7d52a715
10001128:	7d6bb8eb 	0x7d6bb8eb
1000112c:	7d7f7119 	0x7d7f7119
10001130:	7d85c07a 	0x7d85c07a
10001134:	7d9c5efa 	0x7d9c5efa
10001138:	7e22504c 	0x7e22504c
1000113c:	7e33288a 	0x7e33288a
10001140:	7e5a87ad 	0x7e5a87ad
10001144:	7e6481a4 	0x7e6481a4
10001148:	7e6e9e27 	0x7e6e9e27
1000114c:	7e759730 	0x7e759730
10001150:	7e764c65 	0x7e764c65
10001154:	7ebc4e20 	0x7ebc4e20
10001158:	7edc39fe 	0x7edc39fe
1000115c:	7f17ebba 	0x7f17ebba
10001160:	7f226709 	0x7f226709
10001164:	7f35c363 	0x7f35c363
10001168:	7f58c40a 	0x7f58c40a
1000116c:	7f841c0d 	0x7f841c0d
10001170:	7fa04c23 	0x7fa04c23
10001174:	7fab3afd 	0x7fab3afd
10001178:	7fd1325f 	0x7fd1325f
1000117c:	7fe8f2a1 	0x7fe8f2a1

Disassembly of section .pdr:

00000000 <.pdr>:
   0:	10000004 	b	14 <entry-0xffffff0>
   4:	c0000000 	lwc0	c0_index,0(zero)
   8:	fffffffc 	0xfffffffc
	...
  14:	00000028 	0x28
  18:	0000001e 	0x1e
  1c:	0000001f 	0x1f
  20:	10000068 	b	1c4 <entry-0xffffe40>
  24:	c0000000 	lwc0	c0_index,0(zero)
  28:	fffffffc 	0xfffffffc
	...
  34:	00000028 	0x28
  38:	0000001e 	0x1e
  3c:	0000001f 	0x1f

Disassembly of section .comment:

00000000 <.comment>:
   0:	4743433a 	c1	0x143433a
   4:	20285562 	addi	t0,at,21858
   8:	756e7475 	jalx	5b9d1d4 <entry-0xa462e30>
   c:	20352e34 	addi	s5,at,11828
  10:	2e302d36 	sltiu	s0,s1,11574
  14:	7562756e 	jalx	589d5b8 <entry-0xa762a4c>
  18:	7475317e 	jalx	1d4c5f8 <entry-0xe2b3a0c>
  1c:	31362e30 	andi	s6,t1,0x2e30
  20:	342e3129 	ori	t6,at,0x3129
  24:	20352e34 	addi	s5,at,11828
  28:	2e302032 	sltiu	s0,s1,8242
  2c:	30313630 	andi	s1,at,0x3630
  30:	36303900 	ori	s0,s1,0x3900

Disassembly of section .gnu.attributes:

00000000 <.gnu.attributes>:
   0:	41000000 	bc0f	4 <entry-0x10000000>
   4:	0f676e75 	jal	d9db9d4 <entry-0x2624630>
   8:	00010000 	sll	zero,at,0x0
   c:	00070401 	0x70401
