
testbench/_c_code/unaligned.mips.elf:     file format elf32-tradbigmips


Disassembly of section .text:

10000000 <entry-0x4>:
10000000:	3c1d2400 	lui	sp,0x2400

10000004 <entry>:
10000004:	27bdffc8 	addiu	sp,sp,-56
10000008:	afbf0034 	sw	ra,52(sp)
1000000c:	afbe0030 	sw	s8,48(sp)
10000010:	03a0f025 	move	s8,sp
10000014:	3c021000 	lui	v0,0x1000
10000018:	244301d0 	addiu	v1,v0,464
1000001c:	884401d0 	lwl	a0,464(v0)
10000020:	00000000 	nop
10000024:	98640003 	lwr	a0,3(v1)
10000028:	244301d0 	addiu	v1,v0,464
1000002c:	88650004 	lwl	a1,4(v1)
10000030:	00000000 	nop
10000034:	98650007 	lwr	a1,7(v1)
10000038:	00000000 	nop
1000003c:	00a01825 	move	v1,a1
10000040:	afc40020 	sw	a0,32(s8)
10000044:	afc30024 	sw	v1,36(s8)
10000048:	244201d0 	addiu	v0,v0,464
1000004c:	90430008 	lbu	v1,8(v0)
10000050:	00000000 	nop
10000054:	a3c30028 	sb	v1,40(s8)
10000058:	90420009 	lbu	v0,9(v0)
1000005c:	00000000 	nop
10000060:	a3c20029 	sb	v0,41(s8)
10000064:	afc00018 	sw	zero,24(s8)
10000068:	afc0001c 	sw	zero,28(s8)
1000006c:	10000010 	b	100000b0 <entry+0xac>
10000070:	00000000 	nop
10000074:	8fc50020 	lw	a1,32(s8)
10000078:	8fc60024 	lw	a2,36(s8)
1000007c:	8fc70028 	lw	a3,40(s8)
10000080:	8fc4001c 	lw	a0,28(s8)
10000084:	0c000038 	jal	100000e0 <returnData>
10000088:	00000000 	nop
1000008c:	00401825 	move	v1,v0
10000090:	8fc20018 	lw	v0,24(s8)
10000094:	00000000 	nop
10000098:	00431021 	addu	v0,v0,v1
1000009c:	afc20018 	sw	v0,24(s8)
100000a0:	8fc2001c 	lw	v0,28(s8)
100000a4:	00000000 	nop
100000a8:	24420001 	addiu	v0,v0,1
100000ac:	afc2001c 	sw	v0,28(s8)
100000b0:	8fc2001c 	lw	v0,28(s8)
100000b4:	00000000 	nop
100000b8:	28420005 	slti	v0,v0,5
100000bc:	1440ffed 	bnez	v0,10000074 <entry+0x70>
100000c0:	00000000 	nop
100000c4:	8fc20018 	lw	v0,24(s8)
100000c8:	03c0e825 	move	sp,s8
100000cc:	8fbf0034 	lw	ra,52(sp)
100000d0:	8fbe0030 	lw	s8,48(sp)
100000d4:	27bd0038 	addiu	sp,sp,56
100000d8:	03e00008 	jr	ra
100000dc:	00000000 	nop

100000e0 <returnData>:
100000e0:	27bdfff8 	addiu	sp,sp,-8
100000e4:	afbe0004 	sw	s8,4(sp)
100000e8:	03a0f025 	move	s8,sp
100000ec:	afc40008 	sw	a0,8(s8)
100000f0:	afc5000c 	sw	a1,12(s8)
100000f4:	afc60010 	sw	a2,16(s8)
100000f8:	afc70014 	sw	a3,20(s8)
100000fc:	8fc20008 	lw	v0,8(s8)
10000100:	00000000 	nop
10000104:	14400004 	bnez	v0,10000118 <returnData+0x38>
10000108:	00000000 	nop
1000010c:	87c2000c 	lh	v0,12(s8)
10000110:	1000001d 	b	10000188 <returnData+0xa8>
10000114:	00000000 	nop
10000118:	8fc30008 	lw	v1,8(s8)
1000011c:	24020001 	li	v0,1
10000120:	14620004 	bne	v1,v0,10000134 <returnData+0x54>
10000124:	00000000 	nop
10000128:	83c2000e 	lb	v0,14(s8)
1000012c:	10000016 	b	10000188 <returnData+0xa8>
10000130:	00000000 	nop
10000134:	8fc30008 	lw	v1,8(s8)
10000138:	24020002 	li	v0,2
1000013c:	14620006 	bne	v1,v0,10000158 <returnData+0x78>
10000140:	00000000 	nop
10000144:	8bc2000f 	lwl	v0,15(s8)
10000148:	00000000 	nop
1000014c:	9bc20012 	lwr	v0,18(s8)
10000150:	1000000d 	b	10000188 <returnData+0xa8>
10000154:	00000000 	nop
10000158:	8fc30008 	lw	v1,8(s8)
1000015c:	24020003 	li	v0,3
10000160:	14620006 	bne	v1,v0,1000017c <returnData+0x9c>
10000164:	00000000 	nop
10000168:	8bc2000f 	lwl	v0,15(s8)
1000016c:	00000000 	nop
10000170:	9bc20012 	lwr	v0,18(s8)
10000174:	10000004 	b	10000188 <returnData+0xa8>
10000178:	00000000 	nop
1000017c:	8bc2000f 	lwl	v0,15(s8)
10000180:	00000000 	nop
10000184:	9bc20012 	lwr	v0,18(s8)
10000188:	03c0e825 	move	sp,s8
1000018c:	8fbe0004 	lw	s8,4(sp)
10000190:	27bd0008 	addiu	sp,sp,8
10000194:	03e00008 	jr	ra
10000198:	00000000 	nop
1000019c:	00000000 	nop

Disassembly of section .reginfo:

100001a0 <.reginfo>:
100001a0:	e00000fc 	swc0	c0_index,252(zero)
	...

Disassembly of section .MIPS.abiflags:

100001b8 <.MIPS.abiflags>:
100001b8:	00000100 	sll	zero,zero,0x4
100001bc:	01010001 	0x1010001
	...

Disassembly of section .rodata:

100001d0 <.rodata>:
100001d0:	a76ad7eb 	sh	t2,-10261(k1)
100001d4:	9a28a29a 	lwr	t0,-23910(s1)
100001d8:	5e620000 	0x5e620000
100001dc:	00000000 	nop

Disassembly of section .pdr:

00000000 <.pdr>:
   0:	10000004 	b	14 <entry-0xffffff0>
   4:	c0000000 	lwc0	c0_index,0(zero)
   8:	fffffffc 	0xfffffffc
	...
  14:	00000038 	0x38
  18:	0000001e 	0x1e
  1c:	0000001f 	0x1f
  20:	100000e0 	b	3a4 <entry-0xffffc60>
  24:	40000000 	mfc0	zero,c0_index
  28:	fffffffc 	0xfffffffc
	...
  34:	00000008 	jr	zero
  38:	0000001e 	0x1e
  3c:	0000001f 	0x1f

Disassembly of section .comment:

00000000 <.comment>:
   0:	4743433a 	c1	0x143433a
   4:	20285562 	addi	t0,at,21858
   8:	756e7475 	jalx	5b9d1d4 <entry-0xa462e30>
   c:	20352e34 	addi	s5,at,11828
  10:	2e302d36 	sltiu	s0,s1,11574
  14:	7562756e 	jalx	589d5b8 <entry-0xa762a4c>
  18:	7475317e 	jalx	1d4c5f8 <entry-0xe2b3a0c>
  1c:	31362e30 	andi	s6,t1,0x2e30
  20:	342e3129 	ori	t6,at,0x3129
  24:	20352e34 	addi	s5,at,11828
  28:	2e302032 	sltiu	s0,s1,8242
  2c:	30313630 	andi	s1,at,0x3630
  30:	36303900 	ori	s0,s1,0x3900

Disassembly of section .gnu.attributes:

00000000 <.gnu.attributes>:
   0:	41000000 	bc0f	4 <entry-0x10000000>
   4:	0f676e75 	jal	d9db9d4 <entry-0x2624630>
   8:	00010000 	sll	zero,at,0x0
   c:	00070401 	0x70401
