
testbench/c_code/f.mips.elf:     file format elf32-tradbigmips


Disassembly of section .text:

10000000 <entry-0x4>:
10000000:	3c1d2400 	lui	sp,0x2400

10000004 <entry>:
10000004:	27bdffd8 	addiu	sp,sp,-40
10000008:	afbf0024 	sw	ra,36(sp)
1000000c:	afbe0020 	sw	s8,32(sp)
10000010:	03a0f025 	move	s8,sp
10000014:	0c00003e 	jal	100000f8 <getc>
10000018:	00000000 	nop
1000001c:	afc2001c 	sw	v0,28(s8)
10000020:	8fc4001c 	lw	a0,28(s8)
10000024:	0c000013 	jal	1000004c <shell>
10000028:	00000000 	nop
1000002c:	afc2001c 	sw	v0,28(s8)
10000030:	8fc2001c 	lw	v0,28(s8)
10000034:	03c0e825 	move	sp,s8
10000038:	8fbf0024 	lw	ra,36(sp)
1000003c:	8fbe0020 	lw	s8,32(sp)
10000040:	27bd0028 	addiu	sp,sp,40
10000044:	03e00008 	jr	ra
10000048:	00000000 	nop

1000004c <shell>:
1000004c:	27bdffe0 	addiu	sp,sp,-32
10000050:	afbf001c 	sw	ra,28(sp)
10000054:	afbe0018 	sw	s8,24(sp)
10000058:	03a0f025 	move	s8,sp
1000005c:	afc40020 	sw	a0,32(s8)
10000060:	8fc40020 	lw	a0,32(s8)
10000064:	0c000021 	jal	10000084 <factorial>
10000068:	00000000 	nop
1000006c:	03c0e825 	move	sp,s8
10000070:	8fbf001c 	lw	ra,28(sp)
10000074:	8fbe0018 	lw	s8,24(sp)
10000078:	27bd0020 	addiu	sp,sp,32
1000007c:	03e00008 	jr	ra
10000080:	00000000 	nop

10000084 <factorial>:
10000084:	27bdffe0 	addiu	sp,sp,-32
10000088:	afbf001c 	sw	ra,28(sp)
1000008c:	afbe0018 	sw	s8,24(sp)
10000090:	03a0f025 	move	s8,sp
10000094:	afc40020 	sw	a0,32(s8)
10000098:	8fc20020 	lw	v0,32(s8)
1000009c:	00000000 	nop
100000a0:	14400004 	bnez	v0,100000b4 <factorial+0x30>
100000a4:	00000000 	nop
100000a8:	24020001 	li	v0,1
100000ac:	1000000c 	b	100000e0 <factorial+0x5c>
100000b0:	00000000 	nop
100000b4:	8fc20020 	lw	v0,32(s8)
100000b8:	00000000 	nop
100000bc:	2442ffff 	addiu	v0,v0,-1
100000c0:	00402025 	move	a0,v0
100000c4:	0c000021 	jal	10000084 <factorial>
100000c8:	00000000 	nop
100000cc:	00401825 	move	v1,v0
100000d0:	8fc20020 	lw	v0,32(s8)
100000d4:	00000000 	nop
100000d8:	00620018 	mult	v1,v0
100000dc:	00001012 	mflo	v0
100000e0:	03c0e825 	move	sp,s8
100000e4:	8fbf001c 	lw	ra,28(sp)
100000e8:	8fbe0018 	lw	s8,24(sp)
100000ec:	27bd0020 	addiu	sp,sp,32
100000f0:	03e00008 	jr	ra
100000f4:	00000000 	nop

100000f8 <getc>:
100000f8:	27bdfff0 	addiu	sp,sp,-16
100000fc:	afbe000c 	sw	s8,12(sp)
10000100:	03a0f025 	move	s8,sp
10000104:	3c023000 	lui	v0,0x3000
10000108:	afc20004 	sw	v0,4(s8)
1000010c:	8fc20004 	lw	v0,4(s8)
10000110:	00000000 	nop
10000114:	8c420000 	lw	v0,0(v0)
10000118:	03c0e825 	move	sp,s8
1000011c:	8fbe000c 	lw	s8,12(sp)
10000120:	27bd0010 	addiu	sp,sp,16
10000124:	03e00008 	jr	ra
10000128:	00000000 	nop

1000012c <putc>:
1000012c:	27bdfff0 	addiu	sp,sp,-16
10000130:	afbe000c 	sw	s8,12(sp)
10000134:	03a0f025 	move	s8,sp
10000138:	afc40010 	sw	a0,16(s8)
1000013c:	3c023000 	lui	v0,0x3000
10000140:	34420004 	ori	v0,v0,0x4
10000144:	afc20004 	sw	v0,4(s8)
10000148:	8fc20004 	lw	v0,4(s8)
1000014c:	8fc30010 	lw	v1,16(s8)
10000150:	00000000 	nop
10000154:	ac430000 	sw	v1,0(v0)
10000158:	00000000 	nop
1000015c:	03c0e825 	move	sp,s8
10000160:	8fbe000c 	lw	s8,12(sp)
10000164:	27bd0010 	addiu	sp,sp,16
10000168:	03e00008 	jr	ra
1000016c:	00000000 	nop
